EXPORTS 
	??_R0?AU_Crt_new_delete@std@@@8 	 DATA
	??_R0?AV?$_Func_base@X$$V@std@@@8 	 DATA
	??_R0?AV?$_Func_impl_no_alloc@P6AXXZX$$V@std@@@8 	 DATA
	??_R0?AV?$_Iosb@H@std@@@8 	 DATA
	??_R0?AV?$_Node_class@DV?$regex_traits@D@std@@@std@@@8 	 DATA
	??_R0?AV?$_Node_str@D@std@@@8 	 DATA
	??_R0?AV?$basic_filebuf@DU?$char_traits@D@std@@@std@@@8 	 DATA
	??_R0?AV?$basic_ifstream@DU?$char_traits@D@std@@@std@@@8 	 DATA
	??_R0?AV?$basic_ios@DU?$char_traits@D@std@@@std@@@8 	 DATA
	??_R0?AV?$basic_iostream@DU?$char_traits@D@std@@@std@@@8 	 DATA
	??_R0?AV?$basic_istream@DU?$char_traits@D@std@@@std@@@8 	 DATA
	??_R0?AV?$basic_ostream@DU?$char_traits@D@std@@@std@@@8 	 DATA
	??_R0?AV?$basic_ostringstream@DU?$char_traits@D@std@@V?$allocator@D@2@@std@@@8 	 DATA
	??_R0?AV?$basic_streambuf@DU?$char_traits@D@std@@@std@@@8 	 DATA
	??_R0?AV?$basic_stringbuf@DU?$char_traits@D@std@@V?$allocator@D@2@@std@@@8 	 DATA
	??_R0?AV?$basic_stringstream@DU?$char_traits@D@std@@V?$allocator@D@2@@std@@@8 	 DATA
	??_R0?AV?$collate@D@std@@@8 	 DATA
	??_R0?AV?$complex@N@std@@@8 	 DATA
	??_R0?AV_Facet_base@std@@@8 	 DATA
	??_R0?AV_Generic_error_category@std@@@8 	 DATA
	??_R0?AV_Node_assert@std@@@8 	 DATA
	??_R0?AV_Node_back@std@@@8 	 DATA
	??_R0?AV_Node_base@std@@@8 	 DATA
	??_R0?AV_Node_capture@std@@@8 	 DATA
	??_R0?AV_Node_end_group@std@@@8 	 DATA
	??_R0?AV_Node_end_rep@std@@@8 	 DATA
	??_R0?AV_Node_endif@std@@@8 	 DATA
	??_R0?AV_Node_if@std@@@8 	 DATA
	??_R0?AV_Node_rep@std@@@8 	 DATA
	??_R0?AV_Root_node@std@@@8 	 DATA
	??_R0?AV_System_error@std@@@8 	 DATA
	??_R0?AV_System_error_category@std@@@8 	 DATA
	??_R0?AVbad_alloc@std@@@8 	 DATA
	??_R0?AVbad_array_new_length@std@@@8 	 DATA
	??_R0?AVbad_cast@std@@@8 	 DATA
	??_R0?AVerror_category@std@@@8 	 DATA
	??_R0?AVexception@std@@@8 	 DATA
	??_R0?AVfacet@locale@std@@@8 	 DATA
	??_R0?AVfilesystem_error@filesystem@std@@@8 	 DATA
	??_R0?AVinvalid_argument@std@@@8 	 DATA
	??_R0?AVios_base@std@@@8 	 DATA
	??_R0?AVlength_error@std@@@8 	 DATA
	??_R0?AVlogic_error@std@@@8 	 DATA
	??_R0?AVout_of_range@std@@@8 	 DATA
	??_R0?AVruntime_error@std@@@8 	 DATA
	??_R0?AVsystem_error@std@@@8 	 DATA
	??_R0P6AXXZ@8 	 DATA
	??_R0_N@8 	 DATA
	?CALC_BURES_DISTANCE_MAG_EXCEEDED_ONE@report@@3V?$basic_string@DU?$char_traits@D@std@@V?$allocator@D@2@@std@@A 	 DATA
	?CALC_DENSMATR_EXPECTED_DIAG_MATR_POWER_VALUE_WAS_NOT_APPROX_REAL@report@@3V?$basic_string@DU?$char_traits@D@std@@V?$allocator@D@2@@std@@A 	 DATA
	?CALC_DENSMATR_EXPECTED_DIAG_MATR_VALUE_WAS_NOT_APPROX_REAL@report@@3V?$basic_string@DU?$char_traits@D@std@@V?$allocator@D@2@@std@@A 	 DATA
	?CALC_DENSMATR_EXPECTED_PAULI_STR_SUM_VALUE_WAS_NOT_APPROX_REAL@report@@3V?$basic_string@DU?$char_traits@D@std@@V?$allocator@D@2@@std@@A 	 DATA
	?CALC_DENSMATR_EXPECTED_PAULI_STR_VALUE_WAS_NOT_APPROX_REAL@report@@3V?$basic_string@DU?$char_traits@D@std@@V?$allocator@D@2@@std@@A 	 DATA
	?CALC_FIDELITY_NOT_APPROX_REAL@report@@3V?$basic_string@DU?$char_traits@D@std@@V?$allocator@D@2@@std@@A 	 DATA
	?CALC_FIDELITY_OF_DENSITY_MATRICES_NOT_YET_SUPPORTED@report@@3V?$basic_string@DU?$char_traits@D@std@@V?$allocator@D@2@@std@@A 	 DATA
	?CALC_PURIFIED_DISTANCE_NOT_APPROX_REAL@report@@3V?$basic_string@DU?$char_traits@D@std@@V?$allocator@D@2@@std@@A 	 DATA
	?CALC_PURIFIED_DISTANCE_REAL_EXCEEDED_ONE@report@@3V?$basic_string@DU?$char_traits@D@std@@V?$allocator@D@2@@std@@A 	 DATA
	?CALC_STATEVEC_EXPECTED_PAULI_STR_SUM_VALUE_WAS_NOT_APPROX_REAL@report@@3V?$basic_string@DU?$char_traits@D@std@@V?$allocator@D@2@@std@@A 	 DATA
	?CALC_STATEVEC_EXPECTED_PAULI_STR_VALUE_WAS_NOT_APPROX_REAL@report@@3V?$basic_string@DU?$char_traits@D@std@@V?$allocator@D@2@@std@@A 	 DATA
	?CANNOT_DISTRIB_ENV_BETWEEN_NON_POW_2_NODES@report@@3V?$basic_string@DU?$char_traits@D@std@@V?$allocator@D@2@@std@@A 	 DATA
	?CANNOT_DISTRIB_ENV_WITHOUT_MPI_COMMPILATION@report@@3V?$basic_string@DU?$char_traits@D@std@@V?$allocator@D@2@@std@@A 	 DATA
	?CANNOT_FIT_MIXED_DENSMATR_AMPS_INTO_SINGLE_NODE@report@@3V?$basic_string@DU?$char_traits@D@std@@V?$allocator@D@2@@std@@A 	 DATA
	?CANNOT_FIT_MIXED_STATEVEC_AMPS_INTO_SINGLE_NODE@report@@3V?$basic_string@DU?$char_traits@D@std@@V?$allocator@D@2@@std@@A 	 DATA
	?CANNOT_GPU_ACCEL_ENV_WITH_GPU_COMPILATION@report@@3V?$basic_string@DU?$char_traits@D@std@@V?$allocator@D@2@@std@@A 	 DATA
	?CANNOT_GPU_ACCEL_ENV_WITH_NO_AVAILABLE_GPUS@report@@3V?$basic_string@DU?$char_traits@D@std@@V?$allocator@D@2@@std@@A 	 DATA
	?CANNOT_MULTITHREAD_ENV_WITHOUT_OPENMP_COMPILATION@report@@3V?$basic_string@DU?$char_traits@D@std@@V?$allocator@D@2@@std@@A 	 DATA
	?CANNOT_READ_FILE@report@@3V?$basic_string@DU?$char_traits@D@std@@V?$allocator@D@2@@std@@A 	 DATA
	?CLONED_QUREGS_DIFFER_IN_NUM_QUBITS@report@@3V?$basic_string@DU?$char_traits@D@std@@V?$allocator@D@2@@std@@A 	 DATA
	?CLONED_QUREGS_HAVE_DIFFERENT_DISTRIBUTIONS@report@@3V?$basic_string@DU?$char_traits@D@std@@V?$allocator@D@2@@std@@A 	 DATA
	?CLONED_QUREGS_INCONSISTENT_TYPES@report@@3V?$basic_string@DU?$char_traits@D@std@@V?$allocator@D@2@@std@@A 	 DATA
	?CLONED_STATEVECS_HAVE_DIFFERENT_GPU_DEPLOYMENTS@report@@3V?$basic_string@DU?$char_traits@D@std@@V?$allocator@D@2@@std@@A 	 DATA
	?COMP_MATR_NEW_ELEMS_WRONG_NUM_ROWS@report@@3V?$basic_string@DU?$char_traits@D@std@@V?$allocator@D@2@@std@@A 	 DATA
	?COMP_MATR_NEW_ELEMS_WRONG_ROW_DIM@report@@3V?$basic_string@DU?$char_traits@D@std@@V?$allocator@D@2@@std@@A 	 DATA
	?COMP_MATR_NOT_SYNCED_TO_GPU@report@@3V?$basic_string@DU?$char_traits@D@std@@V?$allocator@D@2@@std@@A 	 DATA
	?CONTROLS_OVERLAP_TARGETS@report@@3V?$basic_string@DU?$char_traits@D@std@@V?$allocator@D@2@@std@@A 	 DATA
	?CUQUANTUM_DEPLOYED_ON_BELOW_CC_GPU@report@@3V?$basic_string@DU?$char_traits@D@std@@V?$allocator@D@2@@std@@A 	 DATA
	?CUQUANTUM_DEPLOYED_ON_GPU_WITHOUT_MEM_POOLS@report@@3V?$basic_string@DU?$char_traits@D@std@@V?$allocator@D@2@@std@@A 	 DATA
	?DENSE_MATR_NEW_ELEMS_INNER_NULL_PTR@report@@3V?$basic_string@DU?$char_traits@D@std@@V?$allocator@D@2@@std@@A 	 DATA
	?DENSE_MATR_NEW_ELEMS_OUTER_NULL_PTR@report@@3V?$basic_string@DU?$char_traits@D@std@@V?$allocator@D@2@@std@@A 	 DATA
	?DIAG_MATR_APPROX_ZERO_WHILE_EXPONENT_REAL_AND_NEGATIVE@report@@3V?$basic_string@DU?$char_traits@D@std@@V?$allocator@D@2@@std@@A 	 DATA
	?DIAG_MATR_NEW_ELEMS_NULL_PTR@report@@3V?$basic_string@DU?$char_traits@D@std@@V?$allocator@D@2@@std@@A 	 DATA
	?DIAG_MATR_NOT_SYNCED_TO_GPU@report@@3V?$basic_string@DU?$char_traits@D@std@@V?$allocator@D@2@@std@@A 	 DATA
	?DIAG_MATR_WRONG_NUM_NEW_ELEMS@report@@3V?$basic_string@DU?$char_traits@D@std@@V?$allocator@D@2@@std@@A 	 DATA
	?DIFFERENT_NUM_CTRLS_AND_STATES@report@@3V?$basic_string@DU?$char_traits@D@std@@V?$allocator@D@2@@std@@A 	 DATA
	?DUPLICATE_CONTROL_QUBITS@report@@3V?$basic_string@DU?$char_traits@D@std@@V?$allocator@D@2@@std@@A 	 DATA
	?DUPLICATE_TARGET_QUBITS@report@@3V?$basic_string@DU?$char_traits@D@std@@V?$allocator@D@2@@std@@A 	 DATA
	?FULL_STATE_DIAG_MATR_GPU_ACCEL_IN_NON_GPU_ENV@report@@3V?$basic_string@DU?$char_traits@D@std@@V?$allocator@D@2@@std@@A 	 DATA
	?FULL_STATE_DIAG_MATR_IS_DISTRIB_BUT_QUREG_ISNT@report@@3V?$basic_string@DU?$char_traits@D@std@@V?$allocator@D@2@@std@@A 	 DATA
	?FULL_STATE_DIAG_MATR_MISMATCHES_QUREG_DIM@report@@3V?$basic_string@DU?$char_traits@D@std@@V?$allocator@D@2@@std@@A 	 DATA
	?FULL_STATE_DIAG_MATR_NEW_ELEMS_EXCEEDS_END_INDEX@report@@3V?$basic_string@DU?$char_traits@D@std@@V?$allocator@D@2@@std@@A 	 DATA
	?FULL_STATE_DIAG_MATR_NEW_ELEMS_INVALID_START_INDEX@report@@3V?$basic_string@DU?$char_traits@D@std@@V?$allocator@D@2@@std@@A 	 DATA
	?FULL_STATE_DIAG_MATR_NEW_ELEMS_NUM_EXCEEDS_MAX_NUM@report@@3V?$basic_string@DU?$char_traits@D@std@@V?$allocator@D@2@@std@@A 	 DATA
	?FULL_STATE_DIAG_MATR_NEW_ELEMS_NUM_IS_NON_POSITIVE@report@@3V?$basic_string@DU?$char_traits@D@std@@V?$allocator@D@2@@std@@A 	 DATA
	?FULL_STATE_DIAG_MATR_NOT_SYNCED_TO_GPU@report@@3V?$basic_string@DU?$char_traits@D@std@@V?$allocator@D@2@@std@@A 	 DATA
	?GPU_CANNOT_FIT_TEMP_MEASUREMENT_OUTCOME_PROBS@report@@3V?$basic_string@DU?$char_traits@D@std@@V?$allocator@D@2@@std@@A 	 DATA
	?HERMITIAN_DIAG_MATR_NEGATIVE_WHILE_EXPONENT_NOT_INTEGER@report@@3V?$basic_string@DU?$char_traits@D@std@@V?$allocator@D@2@@std@@A 	 DATA
	?INIT_DENSMATR_LOCAL_BUT_PURE_STATE_DISTRIBUTED@report@@3V?$basic_string@DU?$char_traits@D@std@@V?$allocator@D@2@@std@@A 	 DATA
	?INIT_PURE_STATE_IS_DENSMATR@report@@3V?$basic_string@DU?$char_traits@D@std@@V?$allocator@D@2@@std@@A 	 DATA
	?INIT_QUREG_HAS_DIFFERENT_NUM_QUBITS_TO_PURE_STATE@report@@3V?$basic_string@DU?$char_traits@D@std@@V?$allocator@D@2@@std@@A 	 DATA
	?INIT_STATEVEC_DIFFERING_DISTRIBUTION_TO_PURE_STATE@report@@3V?$basic_string@DU?$char_traits@D@std@@V?$allocator@D@2@@std@@A 	 DATA
	?INIT_STATEVEC_DIFFERING_GPU_DEPLOYMENT_TO_PURE_STATE@report@@3V?$basic_string@DU?$char_traits@D@std@@V?$allocator@D@2@@std@@A 	 DATA
	?INSUFFICIENT_NUM_REPORTED_NEWLINES@report@@3V?$basic_string@DU?$char_traits@D@std@@V?$allocator@D@2@@std@@A 	 DATA
	?INVALID_BASIS_STATE_INDEX@report@@3V?$basic_string@DU?$char_traits@D@std@@V?$allocator@D@2@@std@@A 	 DATA
	?INVALID_BASIS_STATE_ROW_OR_COL@report@@3V?$basic_string@DU?$char_traits@D@std@@V?$allocator@D@2@@std@@A 	 DATA
	?INVALID_COMP_MATR_1_FIELDS@report@@3V?$basic_string@DU?$char_traits@D@std@@V?$allocator@D@2@@std@@A 	 DATA
	?INVALID_COMP_MATR_2_FIELDS@report@@3V?$basic_string@DU?$char_traits@D@std@@V?$allocator@D@2@@std@@A 	 DATA
	?INVALID_COMP_MATR_FIELDS@report@@3V?$basic_string@DU?$char_traits@D@std@@V?$allocator@D@2@@std@@A 	 DATA
	?INVALID_CONTROL_QUBIT@report@@3V?$basic_string@DU?$char_traits@D@std@@V?$allocator@D@2@@std@@A 	 DATA
	?INVALID_CONTROL_STATE@report@@3V?$basic_string@DU?$char_traits@D@std@@V?$allocator@D@2@@std@@A 	 DATA
	?INVALID_DIAG_MATR_1_FIELDS@report@@3V?$basic_string@DU?$char_traits@D@std@@V?$allocator@D@2@@std@@A 	 DATA
	?INVALID_DIAG_MATR_2_FIELDS@report@@3V?$basic_string@DU?$char_traits@D@std@@V?$allocator@D@2@@std@@A 	 DATA
	?INVALID_DIAG_MATR_FIELDS@report@@3V?$basic_string@DU?$char_traits@D@std@@V?$allocator@D@2@@std@@A 	 DATA
	?INVALID_ENDING_BASIS_ROW_OR_COL@report@@3V?$basic_string@DU?$char_traits@D@std@@V?$allocator@D@2@@std@@A 	 DATA
	?INVALID_ENDING_BASIS_STATE_INDEX@report@@3V?$basic_string@DU?$char_traits@D@std@@V?$allocator@D@2@@std@@A 	 DATA
	?INVALID_ENDING_LOCAL_AMP_INDEX@report@@3V?$basic_string@DU?$char_traits@D@std@@V?$allocator@D@2@@std@@A 	 DATA
	?INVALID_FULL_STATE_DIAG_MATR_FIELDS@report@@3V?$basic_string@DU?$char_traits@D@std@@V?$allocator@D@2@@std@@A 	 DATA
	?INVALID_HEAP_FLAG_PTR@report@@3V?$basic_string@DU?$char_traits@D@std@@V?$allocator@D@2@@std@@A 	 DATA
	?INVALID_HEAP_FLAG_VALUE@report@@3V?$basic_string@DU?$char_traits@D@std@@V?$allocator@D@2@@std@@A 	 DATA
	?INVALID_KRAUS_MAPS_SUPER_OP_CPU_MEM_PTR@report@@3V?$basic_string@DU?$char_traits@D@std@@V?$allocator@D@2@@std@@A 	 DATA
	?INVALID_KRAUS_MAPS_SUPER_OP_FIELDS@report@@3V?$basic_string@DU?$char_traits@D@std@@V?$allocator@D@2@@std@@A 	 DATA
	?INVALID_KRAUS_MAPS_SUPER_OP_GPU_MEM_PTR@report@@3V?$basic_string@DU?$char_traits@D@std@@V?$allocator@D@2@@std@@A 	 DATA
	?INVALID_KRAUS_MAP_FIELDS@report@@3V?$basic_string@DU?$char_traits@D@std@@V?$allocator@D@2@@std@@A 	 DATA
	?INVALID_KRAUS_MAP_IS_CPTP_FLAG@report@@3V?$basic_string@DU?$char_traits@D@std@@V?$allocator@D@2@@std@@A 	 DATA
	?INVALID_KRAUS_MAP_IS_CPTP_PTR@report@@3V?$basic_string@DU?$char_traits@D@std@@V?$allocator@D@2@@std@@A 	 DATA
	?INVALID_KRAUS_MAP_MATRIX_LIST_MEM_PTR@report@@3V?$basic_string@DU?$char_traits@D@std@@V?$allocator@D@2@@std@@A 	 DATA
	?INVALID_KRAUS_MAP_SUPER_OP_NUM_QUBITS@report@@3V?$basic_string@DU?$char_traits@D@std@@V?$allocator@D@2@@std@@A 	 DATA
	?INVALID_MATRIX_CPU_ELEMS_PTR@report@@3V?$basic_string@DU?$char_traits@D@std@@V?$allocator@D@2@@std@@A 	 DATA
	?INVALID_NEW_EPSILON@report@@3V?$basic_string@DU?$char_traits@D@std@@V?$allocator@D@2@@std@@A 	 DATA
	?INVALID_NUM_BASIS_ROWS_OR_COLS@report@@3V?$basic_string@DU?$char_traits@D@std@@V?$allocator@D@2@@std@@A 	 DATA
	?INVALID_NUM_BASIS_STATE_INDICES@report@@3V?$basic_string@DU?$char_traits@D@std@@V?$allocator@D@2@@std@@A 	 DATA
	?INVALID_NUM_INIT_PURE_STATES@report@@3V?$basic_string@DU?$char_traits@D@std@@V?$allocator@D@2@@std@@A 	 DATA
	?INVALID_NUM_LOCAL_AMP_INDICES@report@@3V?$basic_string@DU?$char_traits@D@std@@V?$allocator@D@2@@std@@A 	 DATA
	?INVALID_NUM_NEW_PAULI_CHARS@report@@3V?$basic_string@DU?$char_traits@D@std@@V?$allocator@D@2@@std@@A 	 DATA
	?INVALID_NUM_RANDOM_SEEDS@report@@3V?$basic_string@DU?$char_traits@D@std@@V?$allocator@D@2@@std@@A 	 DATA
	?INVALID_NUM_REPORTED_NEWLINES@report@@3V?$basic_string@DU?$char_traits@D@std@@V?$allocator@D@2@@std@@A 	 DATA
	?INVALID_NUM_REPORTED_SCALARS@report@@3V?$basic_string@DU?$char_traits@D@std@@V?$allocator@D@2@@std@@A 	 DATA
	?INVALID_NUM_REPORTED_SIG_FIGS@report@@3V?$basic_string@DU?$char_traits@D@std@@V?$allocator@D@2@@std@@A 	 DATA
	?INVALID_OPTION_FOR_ENV_IS_DISTRIB@report@@3V?$basic_string@DU?$char_traits@D@std@@V?$allocator@D@2@@std@@A 	 DATA
	?INVALID_OPTION_FOR_ENV_IS_GPU_ACCEL@report@@3V?$basic_string@DU?$char_traits@D@std@@V?$allocator@D@2@@std@@A 	 DATA
	?INVALID_OPTION_FOR_ENV_IS_MULTITHREAD@report@@3V?$basic_string@DU?$char_traits@D@std@@V?$allocator@D@2@@std@@A 	 DATA
	?INVALID_OPTION_FOR_MATRIX_IS_DISTRIB@report@@3V?$basic_string@DU?$char_traits@D@std@@V?$allocator@D@2@@std@@A 	 DATA
	?INVALID_OPTION_FOR_MATRIX_IS_GPU_ACCEL@report@@3V?$basic_string@DU?$char_traits@D@std@@V?$allocator@D@2@@std@@A 	 DATA
	?INVALID_OPTION_FOR_MATRIX_IS_MULTITHREAD@report@@3V?$basic_string@DU?$char_traits@D@std@@V?$allocator@D@2@@std@@A 	 DATA
	?INVALID_OPTION_FOR_QUREG_IS_DENSMATR@report@@3V?$basic_string@DU?$char_traits@D@std@@V?$allocator@D@2@@std@@A 	 DATA
	?INVALID_OPTION_FOR_QUREG_IS_DISTRIB@report@@3V?$basic_string@DU?$char_traits@D@std@@V?$allocator@D@2@@std@@A 	 DATA
	?INVALID_OPTION_FOR_QUREG_IS_GPU_ACCEL@report@@3V?$basic_string@DU?$char_traits@D@std@@V?$allocator@D@2@@std@@A 	 DATA
	?INVALID_OPTION_FOR_QUREG_IS_MULTITHREAD@report@@3V?$basic_string@DU?$char_traits@D@std@@V?$allocator@D@2@@std@@A 	 DATA
	?INVALID_PAULI_STR_HEAP_PTR@report@@3V?$basic_string@DU?$char_traits@D@std@@V?$allocator@D@2@@std@@A 	 DATA
	?INVALID_PAULI_STR_SUM_FIELDS@report@@3V?$basic_string@DU?$char_traits@D@std@@V?$allocator@D@2@@std@@A 	 DATA
	?INVALID_PROBABILITY@report@@3V?$basic_string@DU?$char_traits@D@std@@V?$allocator@D@2@@std@@A 	 DATA
	?INVALID_QUREG_FIELDS@report@@3V?$basic_string@DU?$char_traits@D@std@@V?$allocator@D@2@@std@@A 	 DATA
	?INVALID_REPORTED_PAULI_STR_STYLE_FLAG@report@@3V?$basic_string@DU?$char_traits@D@std@@V?$allocator@D@2@@std@@A 	 DATA
	?INVALID_STARTING_BASIS_ROW_OR_COL@report@@3V?$basic_string@DU?$char_traits@D@std@@V?$allocator@D@2@@std@@A 	 DATA
	?INVALID_STARTING_BASIS_STATE_INDEX@report@@3V?$basic_string@DU?$char_traits@D@std@@V?$allocator@D@2@@std@@A 	 DATA
	?INVALID_STARTING_LOCAL_AMP_INDEX@report@@3V?$basic_string@DU?$char_traits@D@std@@V?$allocator@D@2@@std@@A 	 DATA
	?INVALID_SUPER_OP_CPU_MEM_PTR@report@@3V?$basic_string@DU?$char_traits@D@std@@V?$allocator@D@2@@std@@A 	 DATA
	?INVALID_SUPER_OP_FIELDS@report@@3V?$basic_string@DU?$char_traits@D@std@@V?$allocator@D@2@@std@@A 	 DATA
	?INVALID_SUPER_OP_GPU_MEM_PTR@report@@3V?$basic_string@DU?$char_traits@D@std@@V?$allocator@D@2@@std@@A 	 DATA
	?INVALID_TARGET_QUBIT@report@@3V?$basic_string@DU?$char_traits@D@std@@V?$allocator@D@2@@std@@A 	 DATA
	?INVALID_TROTTER_ORDER@report@@3V?$basic_string@DU?$char_traits@D@std@@V?$allocator@D@2@@std@@A 	 DATA
	?INVALID_TROTTER_REPS@report@@3V?$basic_string@DU?$char_traits@D@std@@V?$allocator@D@2@@std@@A 	 DATA
	?KRAUS_MAP_FIELDS_MISMATCH_PARAMS@report@@3V?$basic_string@DU?$char_traits@D@std@@V?$allocator@D@2@@std@@A 	 DATA
	?KRAUS_MAP_INCOMPATIBLE_NUM_NEW_MATRICES@report@@3V?$basic_string@DU?$char_traits@D@std@@V?$allocator@D@2@@std@@A 	 DATA
	?KRAUS_MAP_MATRICES_TOTAL_ELEMS_WOULD_EXCEED_QINDEX@report@@3V?$basic_string@DU?$char_traits@D@std@@V?$allocator@D@2@@std@@A 	 DATA
	?KRAUS_MAP_MATRICES_TOTAL_MEM_WOULD_EXCEED_SIZEOF@report@@3V?$basic_string@DU?$char_traits@D@std@@V?$allocator@D@2@@std@@A 	 DATA
	?KRAUS_MAP_NEW_MATRIX_ELEMS_WRONG_NUM_ROWS@report@@3V?$basic_string@DU?$char_traits@D@std@@V?$allocator@D@2@@std@@A 	 DATA
	?KRAUS_MAP_NEW_MATRIX_ELEMS_WRONG_ROW_DIM@report@@3V?$basic_string@DU?$char_traits@D@std@@V?$allocator@D@2@@std@@A 	 DATA
	?KRAUS_MAP_NOT_CPTP@report@@3V?$basic_string@DU?$char_traits@D@std@@V?$allocator@D@2@@std@@A 	 DATA
	?KRAUS_MAP_NOT_SYNCED_TO_GPU@report@@3V?$basic_string@DU?$char_traits@D@std@@V?$allocator@D@2@@std@@A 	 DATA
	?KRAUS_MAP_NUM_GIVEN_NEW_MATRICES_NOT_POSITIVE@report@@3V?$basic_string@DU?$char_traits@D@std@@V?$allocator@D@2@@std@@A 	 DATA
	?KRAUS_MAP_SIZE_MISMATCHES_TARGETS@report@@3V?$basic_string@DU?$char_traits@D@std@@V?$allocator@D@2@@std@@A 	 DATA
	?MANY_QUBIT_MEASUREMENTS_OUTCOME_INVALID@report@@3V?$basic_string@DU?$char_traits@D@std@@V?$allocator@D@2@@std@@A 	 DATA
	?MANY_QUBIT_MEASUREMENT_OUTCOME_IMPOSSIBLY_UNLIKELY@report@@3V?$basic_string@DU?$char_traits@D@std@@V?$allocator@D@2@@std@@A 	 DATA
	?MATRIX_GPU_ELEMS_PTR_UNEXPECTEDLY_NOT_NULL@report@@3V?$basic_string@DU?$char_traits@D@std@@V?$allocator@D@2@@std@@A 	 DATA
	?MATRIX_GPU_ELEMS_PTR_UNEXPECTEDLY_NULL@report@@3V?$basic_string@DU?$char_traits@D@std@@V?$allocator@D@2@@std@@A 	 DATA
	?MATRIX_NOT_HERMITIAN@report@@3V?$basic_string@DU?$char_traits@D@std@@V?$allocator@D@2@@std@@A 	 DATA
	?MATRIX_NOT_UNITARY@report@@3V?$basic_string@DU?$char_traits@D@std@@V?$allocator@D@2@@std@@A 	 DATA
	?MATRIX_SIZE_MISMATCHES_NUM_TARGETS@report@@3V?$basic_string@DU?$char_traits@D@std@@V?$allocator@D@2@@std@@A 	 DATA
	?MATR_NUM_ELEMS_MISMATCHES_VEC_LENGTH_IN_INLINE_SETTER@report@@3V?$basic_string@DU?$char_traits@D@std@@V?$allocator@D@2@@std@@A 	 DATA
	?MATR_NUM_QUBITS_MISMATCHES_INLINE_SETTER@report@@3V?$basic_string@DU?$char_traits@D@std@@V?$allocator@D@2@@std@@A 	 DATA
	?MAX_MESSAGE_LENGTH@@3_JA 	 DATA
	?MEASUREMENT_OUTCOMES_MISMATCH_NUM_TARGETS@report@@3V?$basic_string@DU?$char_traits@D@std@@V?$allocator@D@2@@std@@A 	 DATA
	?MIXED_DENSITY_MATRICES_ARE_DIFFERENTLY_DISTRIBUED@report@@3V?$basic_string@DU?$char_traits@D@std@@V?$allocator@D@2@@std@@A 	 DATA
	?MIXED_DENSITY_MATRIX_LOCAL_BUT_STATEVEC_DISTRIBUTED@report@@3V?$basic_string@DU?$char_traits@D@std@@V?$allocator@D@2@@std@@A 	 DATA
	?MIXED_QUREGS_HAVE_DIFFERENT_NUM_QUBITS@report@@3V?$basic_string@DU?$char_traits@D@std@@V?$allocator@D@2@@std@@A 	 DATA
	?MIXED_QUREG_NOT_DENSITY_MATRIX@report@@3V?$basic_string@DU?$char_traits@D@std@@V?$allocator@D@2@@std@@A 	 DATA
	?MULTIPLE_NODES_BOUND_TO_SAME_GPU@report@@3V?$basic_string@DU?$char_traits@D@std@@V?$allocator@D@2@@std@@A 	 DATA
	?MULTI_VAR_FUNC_INVALID_ARE_SIGNED_FLAG@report@@3V?$basic_string@DU?$char_traits@D@std@@V?$allocator@D@2@@std@@A 	 DATA
	?MULTI_VAR_FUNC_INVALID_NUM_QUBITS_PER_VAR@report@@3V?$basic_string@DU?$char_traits@D@std@@V?$allocator@D@2@@std@@A 	 DATA
	?MULTI_VAR_FUNC_INVALID_NUM_VARS@report@@3V?$basic_string@DU?$char_traits@D@std@@V?$allocator@D@2@@std@@A 	 DATA
	?MULTI_VAR_FUNC_MISMATCHING_NUM_QUBITS@report@@3V?$basic_string@DU?$char_traits@D@std@@V?$allocator@D@2@@std@@A 	 DATA
	?NEGATIVE_NUM_CONTROLS@report@@3V?$basic_string@DU?$char_traits@D@std@@V?$allocator@D@2@@std@@A 	 DATA
	?NEGATIVE_OR_ZERO_NUM_TARGETS@report@@3V?$basic_string@DU?$char_traits@D@std@@V?$allocator@D@2@@std@@A 	 DATA
	?NESTED_VECTOR_MATRIX_HAS_INCONSISTENT_NUM_COLUMNS@report@@3V?$basic_string@DU?$char_traits@D@std@@V?$allocator@D@2@@std@@A 	 DATA
	?NEW_COMP_MATR_NUM_ELEMS_WOULD_EXCEED_QINDEX@report@@3V?$basic_string@DU?$char_traits@D@std@@V?$allocator@D@2@@std@@A 	 DATA
	?NEW_DENSMATR_QUREG_LOCAL_MEM_WOULD_EXCEED_SIZEOF@report@@3V?$basic_string@DU?$char_traits@D@std@@V?$allocator@D@2@@std@@A 	 DATA
	?NEW_DENSMATR_QUREG_NUM_AMPS_WOULD_EXCEED_QINDEX@report@@3V?$basic_string@DU?$char_traits@D@std@@V?$allocator@D@2@@std@@A 	 DATA
	?NEW_DIAG_MATR_NUM_ELEMS_WOULD_EXCEED_QINDEX@report@@3V?$basic_string@DU?$char_traits@D@std@@V?$allocator@D@2@@std@@A 	 DATA
	?NEW_DISTRIB_DENSMATR_QUREG_HAS_TOO_FEW_AMPS@report@@3V?$basic_string@DU?$char_traits@D@std@@V?$allocator@D@2@@std@@A 	 DATA
	?NEW_DISTRIB_DIAG_MATR_CANNOT_FIT_INTO_CPU_MEM@report@@3V?$basic_string@DU?$char_traits@D@std@@V?$allocator@D@2@@std@@A 	 DATA
	?NEW_DISTRIB_DIAG_MATR_CANNOT_FIT_INTO_GPU_MEM@report@@3V?$basic_string@DU?$char_traits@D@std@@V?$allocator@D@2@@std@@A 	 DATA
	?NEW_DISTRIB_DIAG_MATR_HAS_TOO_FEW_AMPS@report@@3V?$basic_string@DU?$char_traits@D@std@@V?$allocator@D@2@@std@@A 	 DATA
	?NEW_DISTRIB_DIAG_MATR_LOCAL_MEM_WOULD_EXCEED_SIZEOF@report@@3V?$basic_string@DU?$char_traits@D@std@@V?$allocator@D@2@@std@@A 	 DATA
	?NEW_DISTRIB_MATRIX_IN_NON_DISTRIB_ENV@report@@3V?$basic_string@DU?$char_traits@D@std@@V?$allocator@D@2@@std@@A 	 DATA
	?NEW_DISTRIB_QUREG_IN_NON_DISTRIB_ENV@report@@3V?$basic_string@DU?$char_traits@D@std@@V?$allocator@D@2@@std@@A 	 DATA
	?NEW_DISTRIB_STATEVEC_QUREG_HAS_TOO_FEW_AMPS@report@@3V?$basic_string@DU?$char_traits@D@std@@V?$allocator@D@2@@std@@A 	 DATA
	?NEW_GPU_MATRIX_IN_NON_GPU_ACCEL_ENV@report@@3V?$basic_string@DU?$char_traits@D@std@@V?$allocator@D@2@@std@@A 	 DATA
	?NEW_GPU_QUREG_IN_NON_GPU_ACCEL_ENV@report@@3V?$basic_string@DU?$char_traits@D@std@@V?$allocator@D@2@@std@@A 	 DATA
	?NEW_HEAP_FLAG_ALLOC_FAILED@report@@3V?$basic_string@DU?$char_traits@D@std@@V?$allocator@D@2@@std@@A 	 DATA
	?NEW_INLINE_KRAUS_MAP_INCOMPATIBLE_NUM_NEW_MATRICES@report@@3V?$basic_string@DU?$char_traits@D@std@@V?$allocator@D@2@@std@@A 	 DATA
	?NEW_INLINE_KRAUS_MAP_MATRIX_WRONG_NUM_COLS@report@@3V?$basic_string@DU?$char_traits@D@std@@V?$allocator@D@2@@std@@A 	 DATA
	?NEW_INLINE_KRAUS_MAP_MATRIX_WRONG_NUM_ROWS@report@@3V?$basic_string@DU?$char_traits@D@std@@V?$allocator@D@2@@std@@A 	 DATA
	?NEW_INLINE_SUPER_OP_MATRIX_WRONG_NUM_COLS@report@@3V?$basic_string@DU?$char_traits@D@std@@V?$allocator@D@2@@std@@A 	 DATA
	?NEW_INLINE_SUPER_OP_MATRIX_WRONG_NUM_ROWS@report@@3V?$basic_string@DU?$char_traits@D@std@@V?$allocator@D@2@@std@@A 	 DATA
	?NEW_KRAUS_MAPS_SUPER_OP_CANNOT_FIT_INTO_CPU_MEM@report@@3V?$basic_string@DU?$char_traits@D@std@@V?$allocator@D@2@@std@@A 	 DATA
	?NEW_KRAUS_MAPS_SUPER_OP_CANNOT_FIT_INTO_GPU_MEM@report@@3V?$basic_string@DU?$char_traits@D@std@@V?$allocator@D@2@@std@@A 	 DATA
	?NEW_KRAUS_MAPS_SUPER_OP_CPU_ELEMS_ALLOC_FAILED@report@@3V?$basic_string@DU?$char_traits@D@std@@V?$allocator@D@2@@std@@A 	 DATA
	?NEW_KRAUS_MAPS_SUPER_OP_GPU_ELEMS_ALLOC_FAILED@report@@3V?$basic_string@DU?$char_traits@D@std@@V?$allocator@D@2@@std@@A 	 DATA
	?NEW_KRAUS_MAPS_SUPER_OP_MEM_WOULD_EXCEED_SIZEOF@report@@3V?$basic_string@DU?$char_traits@D@std@@V?$allocator@D@2@@std@@A 	 DATA
	?NEW_KRAUS_MAPS_SUPER_OP_NUM_ELEMS_WOULD_EXCEED_QINDEX@report@@3V?$basic_string@DU?$char_traits@D@std@@V?$allocator@D@2@@std@@A 	 DATA
	?NEW_KRAUS_MAP_CPU_MATRICES_ALLOC_FAILED@report@@3V?$basic_string@DU?$char_traits@D@std@@V?$allocator@D@2@@std@@A 	 DATA
	?NEW_KRAUS_MAP_NUM_QUBITS_NOT_POSITIVE@report@@3V?$basic_string@DU?$char_traits@D@std@@V?$allocator@D@2@@std@@A 	 DATA
	?NEW_LOCAL_COMP_MATR_CANNOT_FIT_INTO_CPU_MEM@report@@3V?$basic_string@DU?$char_traits@D@std@@V?$allocator@D@2@@std@@A 	 DATA
	?NEW_LOCAL_COMP_MATR_CANNOT_FIT_INTO_GPU_MEM@report@@3V?$basic_string@DU?$char_traits@D@std@@V?$allocator@D@2@@std@@A 	 DATA
	?NEW_LOCAL_COMP_MATR_MEM_WOULD_EXCEED_SIZEOF@report@@3V?$basic_string@DU?$char_traits@D@std@@V?$allocator@D@2@@std@@A 	 DATA
	?NEW_LOCAL_DIAG_MATR_CANNOT_FIT_INTO_CPU_MEM@report@@3V?$basic_string@DU?$char_traits@D@std@@V?$allocator@D@2@@std@@A 	 DATA
	?NEW_LOCAL_DIAG_MATR_CANNOT_FIT_INTO_GPU_MEM@report@@3V?$basic_string@DU?$char_traits@D@std@@V?$allocator@D@2@@std@@A 	 DATA
	?NEW_LOCAL_DIAG_MATR_MEM_WOULD_EXCEED_SIZEOF@report@@3V?$basic_string@DU?$char_traits@D@std@@V?$allocator@D@2@@std@@A 	 DATA
	?NEW_MATRIX_CPU_ELEMS_ALLOC_FAILED@report@@3V?$basic_string@DU?$char_traits@D@std@@V?$allocator@D@2@@std@@A 	 DATA
	?NEW_MATRIX_GPU_ELEMS_ALLOC_FAILED@report@@3V?$basic_string@DU?$char_traits@D@std@@V?$allocator@D@2@@std@@A 	 DATA
	?NEW_MATRIX_NUM_QUBITS_NOT_POSITIVE@report@@3V?$basic_string@DU?$char_traits@D@std@@V?$allocator@D@2@@std@@A 	 DATA
	?NEW_MULTITHREAD_MATRIX_IN_NON_MULTITHREAD_ENV@report@@3V?$basic_string@DU?$char_traits@D@std@@V?$allocator@D@2@@std@@A 	 DATA
	?NEW_MULTITHREAD_QUREG_IN_NON_MULTITHREAD_ENV@report@@3V?$basic_string@DU?$char_traits@D@std@@V?$allocator@D@2@@std@@A 	 DATA
	?NEW_PAULI_STR_DIFFERENT_NUM_CHARS_AND_INDICES@report@@3V?$basic_string@DU?$char_traits@D@std@@V?$allocator@D@2@@std@@A 	 DATA
	?NEW_PAULI_STR_DUPLICATED_INDEX@report@@3V?$basic_string@DU?$char_traits@D@std@@V?$allocator@D@2@@std@@A 	 DATA
	?NEW_PAULI_STR_INVALID_INDEX@report@@3V?$basic_string@DU?$char_traits@D@std@@V?$allocator@D@2@@std@@A 	 DATA
	?NEW_PAULI_STR_INVALID_PAULI_CODE@report@@3V?$basic_string@DU?$char_traits@D@std@@V?$allocator@D@2@@std@@A 	 DATA
	?NEW_PAULI_STR_NON_POSITIVE_NUM_PAULIS@report@@3V?$basic_string@DU?$char_traits@D@std@@V?$allocator@D@2@@std@@A 	 DATA
	?NEW_PAULI_STR_NUM_PAULIS_EXCEEDS_TYPE@report@@3V?$basic_string@DU?$char_traits@D@std@@V?$allocator@D@2@@std@@A 	 DATA
	?NEW_PAULI_STR_SUM_COEFFS_ALLOC_FAILED@report@@3V?$basic_string@DU?$char_traits@D@std@@V?$allocator@D@2@@std@@A 	 DATA
	?NEW_PAULI_STR_SUM_DIFFERENT_NUM_STRINGS_AND_COEFFS@report@@3V?$basic_string@DU?$char_traits@D@std@@V?$allocator@D@2@@std@@A 	 DATA
	?NEW_PAULI_STR_SUM_NON_POSITIVE_NUM_STRINGS@report@@3V?$basic_string@DU?$char_traits@D@std@@V?$allocator@D@2@@std@@A 	 DATA
	?NEW_PAULI_STR_SUM_STRINGS_ALLOC_FAILED@report@@3V?$basic_string@DU?$char_traits@D@std@@V?$allocator@D@2@@std@@A 	 DATA
	?NEW_PAULI_STR_TERMINATION_CHAR_TOO_EARLY@report@@3V?$basic_string@DU?$char_traits@D@std@@V?$allocator@D@2@@std@@A 	 DATA
	?NEW_PAULI_STR_UNRECOGNISED_PAULI_CHAR@report@@3V?$basic_string@DU?$char_traits@D@std@@V?$allocator@D@2@@std@@A 	 DATA
	?NEW_QUREG_CANNOT_FIT_INTO_NON_DISTRIB_CPU_MEM@report@@3V?$basic_string@DU?$char_traits@D@std@@V?$allocator@D@2@@std@@A 	 DATA
	?NEW_QUREG_CANNOT_FIT_INTO_NON_DISTRIB_CURRENT_GPU_MEM@report@@3V?$basic_string@DU?$char_traits@D@std@@V?$allocator@D@2@@std@@A 	 DATA
	?NEW_QUREG_CANNOT_FIT_INTO_POTENTIALLY_DISTRIB_CPU_MEM@report@@3V?$basic_string@DU?$char_traits@D@std@@V?$allocator@D@2@@std@@A 	 DATA
	?NEW_QUREG_CANNOT_FIT_INTO_POTENTIALLY_DISTRIB_CURRENT_GPU_MEM@report@@3V?$basic_string@DU?$char_traits@D@std@@V?$allocator@D@2@@std@@A 	 DATA
	?NEW_QUREG_CPU_AMPS_ALLOC_FAILED@report@@3V?$basic_string@DU?$char_traits@D@std@@V?$allocator@D@2@@std@@A 	 DATA
	?NEW_QUREG_CPU_COMM_BUFFER_ALLOC_FAILED@report@@3V?$basic_string@DU?$char_traits@D@std@@V?$allocator@D@2@@std@@A 	 DATA
	?NEW_QUREG_GPU_AMPS_ALLOC_FAILED@report@@3V?$basic_string@DU?$char_traits@D@std@@V?$allocator@D@2@@std@@A 	 DATA
	?NEW_QUREG_GPU_COMM_BUFFER_ALLOC_FAILED@report@@3V?$basic_string@DU?$char_traits@D@std@@V?$allocator@D@2@@std@@A 	 DATA
	?NEW_STATEVEC_QUREG_LOCAL_MEM_WOULD_EXCEED_SIZEOF@report@@3V?$basic_string@DU?$char_traits@D@std@@V?$allocator@D@2@@std@@A 	 DATA
	?NEW_STATEVEC_QUREG_NUM_AMPS_WOULD_EXCEED_QINDEX@report@@3V?$basic_string@DU?$char_traits@D@std@@V?$allocator@D@2@@std@@A 	 DATA
	?NEW_SUPER_OP_CANNOT_FIT_INTO_CPU_MEM@report@@3V?$basic_string@DU?$char_traits@D@std@@V?$allocator@D@2@@std@@A 	 DATA
	?NEW_SUPER_OP_CANNOT_FIT_INTO_GPU_MEM@report@@3V?$basic_string@DU?$char_traits@D@std@@V?$allocator@D@2@@std@@A 	 DATA
	?NEW_SUPER_OP_CPU_ELEMS_ALLOC_FAILED@report@@3V?$basic_string@DU?$char_traits@D@std@@V?$allocator@D@2@@std@@A 	 DATA
	?NEW_SUPER_OP_GPU_ELEMS_ALLOC_FAILED@report@@3V?$basic_string@DU?$char_traits@D@std@@V?$allocator@D@2@@std@@A 	 DATA
	?NEW_SUPER_OP_MEM_WOULD_EXCEED_SIZEOF@report@@3V?$basic_string@DU?$char_traits@D@std@@V?$allocator@D@2@@std@@A 	 DATA
	?NEW_SUPER_OP_NUM_ELEMS_WOULD_EXCEED_QINDEX@report@@3V?$basic_string@DU?$char_traits@D@std@@V?$allocator@D@2@@std@@A 	 DATA
	?NEW_SUPER_OP_NUM_QUBITS_NOT_POSITIVE@report@@3V?$basic_string@DU?$char_traits@D@std@@V?$allocator@D@2@@std@@A 	 DATA
	?NON_EMPTY_CONTROL_LIST_WAS_NULL_PTR@report@@3V?$basic_string@DU?$char_traits@D@std@@V?$allocator@D@2@@std@@A 	 DATA
	?NON_POSITIVE_NUM_QUBITS_IN_CREATE_QUREG@report@@3V?$basic_string@DU?$char_traits@D@std@@V?$allocator@D@2@@std@@A 	 DATA
	?NUM_CONTROLS_EXCEEDS_QUREG_SIZE@report@@3V?$basic_string@DU?$char_traits@D@std@@V?$allocator@D@2@@std@@A 	 DATA
	?NUM_TARGETS_EXCEEDS_QUREG_SIZE@report@@3V?$basic_string@DU?$char_traits@D@std@@V?$allocator@D@2@@std@@A 	 DATA
	?NUM_TRACE_QUBITS_EQUALS_QUREG_SIZE@report@@3V?$basic_string@DU?$char_traits@D@std@@V?$allocator@D@2@@std@@A 	 DATA
	?NUM_TRACE_QUBITS_EXCEEDS_DISTRIBUTED_MAX@report@@3V?$basic_string@DU?$char_traits@D@std@@V?$allocator@D@2@@std@@A 	 DATA
	?NUM_TRACE_QUBITS_INCONSISTENT_WITH_REDUCED_QUREG@report@@3V?$basic_string@DU?$char_traits@D@std@@V?$allocator@D@2@@std@@A 	 DATA
	?ONE_QUBIT_DEPHASING_PROB_EXCEEDS_MAXIMAL_MIXING@report@@3V?$basic_string@DU?$char_traits@D@std@@V?$allocator@D@2@@std@@A 	 DATA
	?ONE_QUBIT_DEPOLARISING_PROB_EXCEEDS_MAXIMAL_MIXING@report@@3V?$basic_string@DU?$char_traits@D@std@@V?$allocator@D@2@@std@@A 	 DATA
	?ONE_QUBIT_MEASUREMENT_OUTCOME_IMPOSSIBLY_UNLIKELY@report@@3V?$basic_string@DU?$char_traits@D@std@@V?$allocator@D@2@@std@@A 	 DATA
	?ONE_QUBIT_MEASUREMENT_OUTCOME_INVALID@report@@3V?$basic_string@DU?$char_traits@D@std@@V?$allocator@D@2@@std@@A 	 DATA
	?ONE_QUBIT_PAULI_CHANNEL_PROBS_EXCEED_MAXIMAL_MIXING@report@@3V?$basic_string@DU?$char_traits@D@std@@V?$allocator@D@2@@std@@A 	 DATA
	?ONE_QUBIT_PAULI_CHANNEL_TOTAL_PROBS_EXCEED_ONE@report@@3V?$basic_string@DU?$char_traits@D@std@@V?$allocator@D@2@@std@@A 	 DATA
	?OUTCOME_PROBS_DO_NOT_SUM_TO_ONE@report@@3V?$basic_string@DU?$char_traits@D@std@@V?$allocator@D@2@@std@@A 	 DATA
	?PARSED_PAULI_STR_SUM_COEFF_IS_INVALID@report@@3V?$basic_string@DU?$char_traits@D@std@@V?$allocator@D@2@@std@@A 	 DATA
	?PARSED_PAULI_STR_SUM_INCONSISTENT_NUM_PAULIS_IN_LINE@report@@3V?$basic_string@DU?$char_traits@D@std@@V?$allocator@D@2@@std@@A 	 DATA
	?PARSED_PAULI_STR_SUM_UNINTERPRETABLE_LINE@report@@3V?$basic_string@DU?$char_traits@D@std@@V?$allocator@D@2@@std@@A 	 DATA
	?PARSED_STRING_IS_EMPTY@report@@3V?$basic_string@DU?$char_traits@D@std@@V?$allocator@D@2@@std@@A 	 DATA
	?PAULI_STR_OVERLAPS_CONTROLS@report@@3V?$basic_string@DU?$char_traits@D@std@@V?$allocator@D@2@@std@@A 	 DATA
	?PAULI_STR_SUM_EXCEEDS_MATR_NUM_QUBITS@report@@3V?$basic_string@DU?$char_traits@D@std@@V?$allocator@D@2@@std@@A 	 DATA
	?PAULI_STR_SUM_EXCEEDS_QUREG_NUM_QUBITS@report@@3V?$basic_string@DU?$char_traits@D@std@@V?$allocator@D@2@@std@@A 	 DATA
	?PAULI_STR_SUM_NOT_ALL_I_Z@report@@3V?$basic_string@DU?$char_traits@D@std@@V?$allocator@D@2@@std@@A 	 DATA
	?PAULI_STR_SUM_NOT_HERMITIAN@report@@3V?$basic_string@DU?$char_traits@D@std@@V?$allocator@D@2@@std@@A 	 DATA
	?PAULI_STR_TARGETS_EXCEED_QUREG@report@@3V?$basic_string@DU?$char_traits@D@std@@V?$allocator@D@2@@std@@A 	 DATA
	?PRODUCTED_QUREGS_HAVE_DIFFERENT_NUM_QUBITS@report@@3V?$basic_string@DU?$char_traits@D@std@@V?$allocator@D@2@@std@@A 	 DATA
	?PRODUCTED_SAME_TYPE_QUREGS_HAVE_DIFFERING_GPU_ACCELS@report@@3V?$basic_string@DU?$char_traits@D@std@@V?$allocator@D@2@@std@@A 	 DATA
	?PRODUCTED_STATEVEC_DISTRIB_BUT_DENSMATR_LOCAL@report@@3V?$basic_string@DU?$char_traits@D@std@@V?$allocator@D@2@@std@@A 	 DATA
	?QUEST_ENV_ALREADY_FINAL@report@@3V?$basic_string@DU?$char_traits@D@std@@V?$allocator@D@2@@std@@A 	 DATA
	?QUEST_ENV_ALREADY_INIT@report@@3V?$basic_string@DU?$char_traits@D@std@@V?$allocator@D@2@@std@@A 	 DATA
	?QUEST_ENV_NOT_INIT@report@@3V?$basic_string@DU?$char_traits@D@std@@V?$allocator@D@2@@std@@A 	 DATA
	?QUREG_IS_INCOMPATIBLE_WITH_WORKSPACE@report@@3V?$basic_string@DU?$char_traits@D@std@@V?$allocator@D@2@@std@@A 	 DATA
	?QUREG_NOT_DENSITY_MATRIX@report@@3V?$basic_string@DU?$char_traits@D@std@@V?$allocator@D@2@@std@@A 	 DATA
	?QUREG_NOT_STATE_VECTOR@report@@3V?$basic_string@DU?$char_traits@D@std@@V?$allocator@D@2@@std@@A 	 DATA
	?QUREG_RENORM_PROB_IS_ZERO@report@@3V?$basic_string@DU?$char_traits@D@std@@V?$allocator@D@2@@std@@A 	 DATA
	?REDUCED_QUREG_DIFFERING_DISTRIBUTION_TO_IN_QUREG@report@@3V?$basic_string@DU?$char_traits@D@std@@V?$allocator@D@2@@std@@A 	 DATA
	?REDUCED_QUREG_DIFFERING_GPU_DEPLOYMENT_TO_IN_QUREG@report@@3V?$basic_string@DU?$char_traits@D@std@@V?$allocator@D@2@@std@@A 	 DATA
	?REDUCTION_EPSILON_FACTOR@@3NA 	 DATA
	?ROTATION_AXIS_VECTOR_IS_ZERO@report@@3V?$basic_string@DU?$char_traits@D@std@@V?$allocator@D@2@@std@@A 	 DATA
	?SUPERPOSED_QUREGS_ARE_NOT_ALL_STATEVECTORS@report@@3V?$basic_string@DU?$char_traits@D@std@@V?$allocator@D@2@@std@@A 	 DATA
	?SUPERPOSED_QUREGS_HAVE_INCONSISTENT_DISTRIBUTION@report@@3V?$basic_string@DU?$char_traits@D@std@@V?$allocator@D@2@@std@@A 	 DATA
	?SUPERPOSED_QUREGS_HAVE_INCONSISTENT_GPU_DEPLOYMENT@report@@3V?$basic_string@DU?$char_traits@D@std@@V?$allocator@D@2@@std@@A 	 DATA
	?SUPERPOSED_QUREGS_HAVE_INCONSISTENT_NUM_QUBITS@report@@3V?$basic_string@DU?$char_traits@D@std@@V?$allocator@D@2@@std@@A 	 DATA
	?SUPER_OP_FIELDS_MISMATCH_PARAMS@report@@3V?$basic_string@DU?$char_traits@D@std@@V?$allocator@D@2@@std@@A 	 DATA
	?SUPER_OP_NEW_MATRIX_ELEMS_WRONG_NUM_COLS@report@@3V?$basic_string@DU?$char_traits@D@std@@V?$allocator@D@2@@std@@A 	 DATA
	?SUPER_OP_NEW_MATRIX_ELEMS_WRONG_NUM_ROWS@report@@3V?$basic_string@DU?$char_traits@D@std@@V?$allocator@D@2@@std@@A 	 DATA
	?SUPER_OP_NOT_SYNCED_TO_GPU@report@@3V?$basic_string@DU?$char_traits@D@std@@V?$allocator@D@2@@std@@A 	 DATA
	?SUPER_OP_SIZE_MISMATCHES_NUM_TARGETS@report@@3V?$basic_string@DU?$char_traits@D@std@@V?$allocator@D@2@@std@@A 	 DATA
	?TARGET_LIST_WAS_NULL_PTR@report@@3V?$basic_string@DU?$char_traits@D@std@@V?$allocator@D@2@@std@@A 	 DATA
	?TEMP_ALLOC_FAILED@report@@3V?$basic_string@DU?$char_traits@D@std@@V?$allocator@D@2@@std@@A 	 DATA
	?TWO_QUBIT_DEPHASING_PROB_EXCEEDS_MAXIMAL_MIXING@report@@3V?$basic_string@DU?$char_traits@D@std@@V?$allocator@D@2@@std@@A 	 DATA
	?TWO_QUBIT_DEPOLARISING_PROB_EXCEEDS_MAXIMAL_MIXING@report@@3V?$basic_string@DU?$char_traits@D@std@@V?$allocator@D@2@@std@@A 	 DATA
	?UNITARY_DIAG_MATR_EXPONENT_NOT_APPROX_REAL@report@@3V?$basic_string@DU?$char_traits@D@std@@V?$allocator@D@2@@std@@A 	 DATA
	?USE_AUTO@modeflag@@3HA 	 DATA
	?_OptionsStorage@?1??__local_stdio_printf_options@@9@4_KA 	 DATA
	?_Psave@?$_Facetptr@V?$codecvt@DDU_Mbstatet@@@std@@@std@@2PEBVfacet@locale@2@EB 	 DATA
	?_Psave@?$_Facetptr@V?$collate@D@std@@@std@@2PEBVfacet@locale@2@EB 	 DATA
	?_Psave@?$_Facetptr@V?$ctype@D@std@@@std@@2PEBVfacet@locale@2@EB 	 DATA
	?_Static@?1???$_Immortalize_memcpy_image@V_Generic_error_category@std@@@std@@YAAEBV_Generic_error_category@1@XZ@4U?$_Constexpr_immortalize_impl@V_Generic_error_category@std@@@1@A 	 DATA
	?_Static@?1???$_Immortalize_memcpy_image@V_System_error_category@std@@@std@@YAAEBV_System_error_category@1@XZ@4U?$_Constexpr_immortalize_impl@V_System_error_category@std@@@1@A 	 DATA
	?_Stinit@?1??_Init@?$basic_filebuf@DU?$char_traits@D@std@@@std@@IEAAXPEAU_iobuf@@W4_Initfl@23@@Z@4U_Mbstatet@@A 	 DATA
	?bt@printer_substrings@@3V?$basic_string@DU?$char_traits@D@std@@V?$allocator@D@2@@std@@A 	 DATA
	?comp@patterns@@3V?$basic_string@DU?$char_traits@D@std@@V?$allocator@D@2@@std@@A 	 DATA
	?comp@regexes@@3V?$basic_regex@DV?$regex_traits@D@std@@@std@@A 	 DATA
	?delim@patterns@@3V?$basic_string@DU?$char_traits@D@std@@V?$allocator@D@2@@std@@A 	 DATA
	?eq@printer_substrings@@3V?$basic_string@DU?$char_traits@D@std@@V?$allocator@D@2@@std@@A 	 DATA
	?exponent@patterns@@3V?$basic_string@DU?$char_traits@D@std@@V?$allocator@D@2@@std@@A 	 DATA
	?globalStructFieldPtrs@@3V?$list@PEAHV?$allocator@PEAH@std@@@std@@A 	 DATA
	?global_inputErrorHandler@@3P6AXPEBD0@ZEA 	 DATA
	?global_maxNumPrintedCols@@3_JA 	 DATA
	?global_maxNumPrintedRows@@3_JA 	 DATA
	?global_maxNumPrintedSigFigs@@3HA 	 DATA
	?global_numTrailingNewlines@@3HA 	 DATA
	?global_pauliChars@@3V?$basic_string@DU?$char_traits@D@std@@V?$allocator@D@2@@std@@A 	 DATA
	?global_pauliStrFormatFlag@@3HA 	 DATA
	?gpuCache@@3PEAV?$complex@N@std@@EA 	 DATA
	?gpuCacheLen@@3_JA 	 DATA
	?hasGpuBeenBound@@3_NA 	 DATA
	?ig@printer_substrings@@3V?$basic_string@DU?$char_traits@D@std@@V?$allocator@D@2@@std@@A 	 DATA
	?imag@patterns@@3V?$basic_string@DU?$char_traits@D@std@@V?$allocator@D@2@@std@@A 	 DATA
	?imag@regexes@@3V?$basic_regex@DV?$regex_traits@D@std@@@std@@A 	 DATA
	?imagsymb@patterns@@3V?$basic_string@DU?$char_traits@D@std@@V?$allocator@D@2@@std@@A 	 DATA
	?inFlightBlocks@@3HA 	 DATA
	?line@patterns@@3V?$basic_string@DU?$char_traits@D@std@@V?$allocator@D@2@@std@@A 	 DATA
	?line@regexes@@3V?$basic_regex@DV?$regex_traits@D@std@@@std@@A 	 DATA
	?mantissa@patterns@@3V?$basic_string@DU?$char_traits@D@std@@V?$allocator@D@2@@std@@A 	 DATA
	?memCv@@3Vcondition_variable@std@@A 	 DATA
	?memMtx@@3Vmutex@std@@A 	 DATA
	?na@printer_substrings@@3V?$basic_string@DU?$char_traits@D@std@@V?$allocator@D@2@@std@@A 	 DATA
	?num@patterns@@3V?$basic_string@DU?$char_traits@D@std@@V?$allocator@D@2@@std@@A 	 DATA
	?num@regexes@@3V?$basic_regex@DV?$regex_traits@D@std@@@std@@A 	 DATA
	?optSign@patterns@@3V?$basic_string@DU?$char_traits@D@std@@V?$allocator@D@2@@std@@A 	 DATA
	?optSpace@patterns@@3V?$basic_string@DU?$char_traits@D@std@@V?$allocator@D@2@@std@@A 	 DATA
	?pauli@patterns@@3V?$basic_string@DU?$char_traits@D@std@@V?$allocator@D@2@@std@@A 	 DATA
	?paulis@patterns@@3V?$basic_string@DU?$char_traits@D@std@@V?$allocator@D@2@@std@@A 	 DATA
	?paulis@regexes@@3V?$basic_regex@DV?$regex_traits@D@std@@@std@@A 	 DATA
	?pg@printer_substrings@@3V?$basic_string@DU?$char_traits@D@std@@V?$allocator@D@2@@std@@A 	 DATA
	?pm@printer_substrings@@3V?$basic_string@DU?$char_traits@D@std@@V?$allocator@D@2@@std@@A 	 DATA
	?pn@printer_substrings@@3V?$basic_string@DU?$char_traits@D@std@@V?$allocator@D@2@@std@@A 	 DATA
	?real@patterns@@3V?$basic_string@DU?$char_traits@D@std@@V?$allocator@D@2@@std@@A 	 DATA
	?real@regexes@@3V?$basic_regex@DV?$regex_traits@D@std@@@std@@A 	 DATA
	?sign@patterns@@3V?$basic_string@DU?$char_traits@D@std@@V?$allocator@D@2@@std@@A 	 DATA
	?space@patterns@@3V?$basic_string@DU?$char_traits@D@std@@V?$allocator@D@2@@std@@A 	 DATA
	?un@printer_substrings@@3V?$basic_string@DU?$char_traits@D@std@@V?$allocator@D@2@@std@@A 	 DATA
	?ureal@patterns@@3V?$basic_string@DU?$char_traits@D@std@@V?$allocator@D@2@@std@@A 	 DATA
	_Avx2WmemEnabledWeakValue 	 DATA
	__isa_available_default 	 DATA
	??$?0I$0A@@seed_seq@std@@QEAA@V?$initializer_list@I@1@@Z
	??$?0PEAD$0A@@?$basic_string@DU?$char_traits@D@std@@V?$allocator@D@2@@std@@QEAA@PEAD0AEBV?$allocator@D@1@@Z
	??$?0V?$_Vector_iterator@V?$_Vector_val@U?$_Simple_types@H@std@@@std@@@std@@@?$set@HU?$less@H@std@@V?$allocator@H@2@@std@@QEAA@V?$_Vector_iterator@V?$_Vector_val@U?$_Simple_types@H@std@@@std@@@1@0@Z
	??$?0V?$_Vector_iterator@V?$_Vector_val@U?$_Simple_types@I@std@@@std@@@std@@@seed_seq@std@@QEAA@V?$_Vector_iterator@V?$_Vector_val@U?$_Simple_types@I@std@@@std@@@1@0@Z
	??$?0V?$allocator@H@std@@$0A@@?$vector@HV?$allocator@H@std@@@std@@QEAA@_KAEBHAEBV?$allocator@H@1@@Z
	??$?6DU?$char_traits@D@std@@V?$allocator@D@1@@std@@YAAEAV?$basic_ostream@DU?$char_traits@D@std@@@0@AEAV10@AEBV?$basic_string@DU?$char_traits@D@std@@V?$allocator@D@2@@0@@Z
	??$?6NDU?$char_traits@D@std@@@std@@YAAEAV?$basic_ostream@DU?$char_traits@D@std@@@0@AEAV10@AEBV?$complex@N@0@@Z
	??$?6U?$char_traits@D@std@@@std@@YAAEAV?$basic_ostream@DU?$char_traits@D@std@@@0@AEAV10@D@Z
	??$?6U?$char_traits@D@std@@@std@@YAAEAV?$basic_ostream@DU?$char_traits@D@std@@@0@AEAV10@PEBD@Z
	??$?8HU?$less@H@std@@V?$allocator@H@1@@std@@YA_NAEBV?$set@HU?$less@H@std@@V?$allocator@H@2@@0@0@Z
	??$?8V?$_String_const_iterator@V?$_String_val@U?$_Simple_types@D@std@@@std@@@std@@@std@@YA_NAEBV?$sub_match@V?$_String_const_iterator@V?$_String_val@U?$_Simple_types@D@std@@@std@@@std@@@0@0@Z
	??$?9HU?$less@H@std@@V?$allocator@H@1@@std@@YA_NAEBV?$set@HU?$less@H@std@@V?$allocator@H@2@@0@0@Z
	??$?9HV?$allocator@H@std@@@std@@YA_NAEBV?$vector@HV?$allocator@H@std@@@0@0@Z
	??$?HDU?$char_traits@D@std@@V?$allocator@D@1@@std@@YA?AV?$basic_string@DU?$char_traits@D@std@@V?$allocator@D@2@@0@$$QEAV10@AEBV10@@Z
	??$?HDU?$char_traits@D@std@@V?$allocator@D@1@@std@@YA?AV?$basic_string@DU?$char_traits@D@std@@V?$allocator@D@2@@0@$$QEAV10@D@Z
	??$?HDU?$char_traits@D@std@@V?$allocator@D@1@@std@@YA?AV?$basic_string@DU?$char_traits@D@std@@V?$allocator@D@2@@0@$$QEAV10@QEBD@Z
	??$?HDU?$char_traits@D@std@@V?$allocator@D@1@@std@@YA?AV?$basic_string@DU?$char_traits@D@std@@V?$allocator@D@2@@0@AEBV10@$$QEAV10@@Z
	??$?HDU?$char_traits@D@std@@V?$allocator@D@1@@std@@YA?AV?$basic_string@DU?$char_traits@D@std@@V?$allocator@D@2@@0@QEBDAEBV10@@Z
	??$?MDU?$char_traits@D@std@@V?$allocator@D@1@@std@@YA_NAEBV?$basic_string@DU?$char_traits@D@std@@V?$allocator@D@2@@0@0@Z
	??$?RV?$mersenne_twister_engine@_K$0EA@$0BDI@$0JM@$0BP@$0?EKPNJAKFFGJJOGBH@$0BN@$0FFFFFFFFFFFFFFFF@$0BB@$0HBNGHPPPONKGAAAA@$0CF@$0?IBBCAAAAAAAAA@$0CL@$0FIFBPECNEMJFHPCN@@std@@@?$normal_distribution@N@std@@QEAANAEAV?$mersenne_twister_engine@_K$0EA@$0BDI@$0JM@$0BP@$0?EKPNJAKFFGJJOGBH@$0BN@$0FFFFFFFFFFFFFFFF@$0BB@$0HBNGHPPPONKGAAAA@$0CF@$0?IBBCAAAAAAAAA@$0CL@$0FIFBPECNEMJFHPCN@@1@@Z
	??$_Allocate@$0BA@U_Default_allocate_traits@std@@@std@@YAPEAX_K@Z
	??$_Allocate_manually_vector_aligned@U_Default_allocate_traits@std@@@std@@YAPEAX_K@Z
	??$_Assign_counted_range@PEAU_Grp_t@?$_Tgt_state_t@PEBD@std@@@?$vector@U_Grp_t@?$_Tgt_state_t@PEBD@std@@V?$allocator@U_Grp_t@?$_Tgt_state_t@PEBD@std@@@3@@std@@AEAAXPEAU_Grp_t@?$_Tgt_state_t@PEBD@1@_K@Z
	??$_Assign_counted_range@PEAU_Grp_t@?$_Tgt_state_t@V?$_String_const_iterator@V?$_String_val@U?$_Simple_types@D@std@@@std@@@std@@@std@@@?$vector@U_Grp_t@?$_Tgt_state_t@V?$_String_const_iterator@V?$_String_val@U?$_Simple_types@D@std@@@std@@@std@@@std@@V?$allocator@U_Grp_t@?$_Tgt_state_t@V?$_String_const_iterator@V?$_String_val@U?$_Simple_types@D@std@@@std@@@std@@@std@@@3@@std@@AEAAXPEAU_Grp_t@?$_Tgt_state_t@V?$_String_const_iterator@V?$_String_val@U?$_Simple_types@D@std@@@std@@@std@@@1@_K@Z
	??$_Cmp_chrange@PEBDPEBDU?$_Cmp_collate@V?$regex_traits@D@std@@@std@@@std@@YAPEBDPEBD000U?$_Cmp_collate@V?$regex_traits@D@std@@@0@@Z
	??$_Cmp_chrange@PEBDPEBDU?$_Cmp_cs@V?$regex_traits@D@std@@@std@@@std@@YAPEBDPEBD000U?$_Cmp_cs@V?$regex_traits@D@std@@@0@@Z
	??$_Cmp_chrange@PEBDPEBDU?$_Cmp_icase@V?$regex_traits@D@std@@@std@@@std@@YAPEBDPEBD000U?$_Cmp_icase@V?$regex_traits@D@std@@@0@@Z
	??$_Cmp_chrange@V?$_String_const_iterator@V?$_String_val@U?$_Simple_types@D@std@@@std@@@std@@PEBDU?$_Cmp_collate@V?$regex_traits@D@std@@@2@@std@@YA?AV?$_String_const_iterator@V?$_String_val@U?$_Simple_types@D@std@@@std@@@0@V10@0PEBD1U?$_Cmp_collate@V?$regex_traits@D@std@@@0@@Z
	??$_Cmp_chrange@V?$_String_const_iterator@V?$_String_val@U?$_Simple_types@D@std@@@std@@@std@@PEBDU?$_Cmp_cs@V?$regex_traits@D@std@@@2@@std@@YA?AV?$_String_const_iterator@V?$_String_val@U?$_Simple_types@D@std@@@std@@@0@V10@0PEBD1U?$_Cmp_cs@V?$regex_traits@D@std@@@0@@Z
	??$_Cmp_chrange@V?$_String_const_iterator@V?$_String_val@U?$_Simple_types@D@std@@@std@@@std@@PEBDU?$_Cmp_icase@V?$regex_traits@D@std@@@2@@std@@YA?AV?$_String_const_iterator@V?$_String_val@U?$_Simple_types@D@std@@@std@@@0@V10@0PEBD1U?$_Cmp_icase@V?$regex_traits@D@std@@@0@@Z
	??$_Cmp_chrange@V?$_String_const_iterator@V?$_String_val@U?$_Simple_types@D@std@@@std@@@std@@V12@U?$_Cmp_collate@V?$regex_traits@D@std@@@2@@std@@YA?AV?$_String_const_iterator@V?$_String_val@U?$_Simple_types@D@std@@@std@@@0@V10@000U?$_Cmp_collate@V?$regex_traits@D@std@@@0@@Z
	??$_Cmp_chrange@V?$_String_const_iterator@V?$_String_val@U?$_Simple_types@D@std@@@std@@@std@@V12@U?$_Cmp_cs@V?$regex_traits@D@std@@@2@@std@@YA?AV?$_String_const_iterator@V?$_String_val@U?$_Simple_types@D@std@@@std@@@0@V10@000U?$_Cmp_cs@V?$regex_traits@D@std@@@0@@Z
	??$_Cmp_chrange@V?$_String_const_iterator@V?$_String_val@U?$_Simple_types@D@std@@@std@@@std@@V12@U?$_Cmp_icase@V?$regex_traits@D@std@@@2@@std@@YA?AV?$_String_const_iterator@V?$_String_val@U?$_Simple_types@D@std@@@std@@@0@V10@000U?$_Cmp_icase@V?$regex_traits@D@std@@@0@@Z
	??$_Compare@PEBDPEBDV?$regex_traits@D@std@@@std@@YAPEBDPEBD000AEBV?$regex_traits@D@0@W4syntax_option_type@regex_constants@0@@Z
	??$_Compare@V?$_String_const_iterator@V?$_String_val@U?$_Simple_types@D@std@@@std@@@std@@PEBDV?$regex_traits@D@2@@std@@YA?AV?$_String_const_iterator@V?$_String_val@U?$_Simple_types@D@std@@@std@@@0@V10@0PEBD1AEBV?$regex_traits@D@0@W4syntax_option_type@regex_constants@0@@Z
	??$_Compare@V?$_String_const_iterator@V?$_String_val@U?$_Simple_types@D@std@@@std@@@std@@V12@V?$regex_traits@D@2@@std@@YA?AV?$_String_const_iterator@V?$_String_val@U?$_Simple_types@D@std@@@std@@@0@V10@000AEBV?$regex_traits@D@0@W4syntax_option_type@regex_constants@0@@Z
	??$_Construct@$00PEBD@?$basic_string@DU?$char_traits@D@std@@V?$allocator@D@2@@std@@AEAAXQEBD_K@Z
	??$_Construct_in_place_by_deref@PEAUBlockData@@PEAPEAU1@@std@@YAXAEAPEAUBlockData@@AEAPEAPEAU1@@Z
	??$_Construct_in_place_by_deref@PEAUGateOp@@PEAPEAU1@@std@@YAXAEAPEAUGateOp@@AEAPEAPEAU1@@Z
	??$_Convert_Source_to_wide@V?$basic_string@DU?$char_traits@D@std@@V?$allocator@D@2@@std@@U_Normal_conversion@filesystem@2@@filesystem@std@@YA?AV?$basic_string@_WU?$char_traits@_W@std@@V?$allocator@_W@2@@1@AEBV?$basic_string@DU?$char_traits@D@std@@V?$allocator@D@2@@1@U_Normal_conversion@01@@Z
	??$_Convert_stringoid_to_wide@U_Normal_conversion@filesystem@std@@@filesystem@std@@YA?AV?$basic_string@_WU?$char_traits@_W@std@@V?$allocator@_W@2@@1@V?$basic_string_view@DU?$char_traits@D@std@@@1@U_Normal_conversion@01@@Z
	??$_Convert_wide_to_narrow_replace_chars@U?$char_traits@D@std@@V?$allocator@D@2@@filesystem@std@@YA?AV?$basic_string@DU?$char_traits@D@std@@V?$allocator@D@2@@1@W4__std_code_page@@V?$basic_string_view@_WU?$char_traits@_W@std@@@1@AEBV?$allocator@D@1@@Z
	??$_Copy_backward_memmove@PEAHPEAH@std@@YAPEAHPEAH00@Z
	??$_Copy_memmove@PEADPEAD@std@@YAPEADPEAD00@Z
	??$_Copy_memmove@PEAHPEAH@std@@YAPEAHPEAH00@Z
	??$_Copy_memmove@PEAIPEAI@std@@YAPEAIPEAI00@Z
	??$_Copy_memmove@PEANPEAN@std@@YAPEANPEAN00@Z
	??$_Copy_memmove@PEAP6AXUQureg@@V?$vector@HV?$allocator@H@std@@@std@@1111V?$complex@N@3@2@ZPEAP6AX01111122@Z@std@@YAPEAP6AXUQureg@@V?$vector@HV?$allocator@H@std@@@0@1111V?$complex@N@0@2@ZPEAP6AX01111122@Z33@Z
	??$_Copy_memmove@PEAP6AXUQureg@@V?$vector@HV?$allocator@H@std@@@std@@11UCompMatr@@@ZPEAP6AX01112@Z@std@@YAPEAP6AXUQureg@@V?$vector@HV?$allocator@H@std@@@0@11UCompMatr@@@ZPEAP6AX01112@Z33@Z
	??$_Copy_memmove@PEAP6AXUQureg@@V?$vector@HV?$allocator@H@std@@@std@@11UDiagMatr@@V?$complex@N@3@@ZPEAP6AX011123@Z@std@@YAPEAP6AXUQureg@@V?$vector@HV?$allocator@H@std@@@0@11UDiagMatr@@V?$complex@N@0@@ZPEAP6AX011123@Z44@Z
	??$_Copy_memmove@PEAPEAUBlockData@@PEAPEAU1@@std@@YAPEAPEAUBlockData@@PEAPEAU1@00@Z
	??$_Copy_memmove@PEAPEAUGateOp@@PEAPEAU1@@std@@YAPEAPEAUGateOp@@PEAPEAU1@00@Z
	??$_Copy_memmove@PEAPEAV?$complex@N@std@@PEAPEAV12@@std@@YAPEAPEAV?$complex@N@0@PEAPEAV10@00@Z
	??$_Copy_memmove@PEAU?$pair@HH@std@@PEAU12@@std@@YAPEAU?$pair@HH@0@PEAU10@00@Z
	??$_Copy_memmove@PEAUGateOp@@PEAU1@@std@@YAPEAUGateOp@@PEAU1@00@Z
	??$_Copy_memmove@PEAUPauliStr@@PEAU1@@std@@YAPEAUPauliStr@@PEAU1@00@Z
	??$_Copy_memmove@PEAU_Grp_t@?$_Tgt_state_t@PEBD@std@@PEAU123@@std@@YAPEAU_Grp_t@?$_Tgt_state_t@PEBD@0@PEAU120@00@Z
	??$_Copy_memmove@PEAU_Grp_t@?$_Tgt_state_t@V?$_String_const_iterator@V?$_String_val@U?$_Simple_types@D@std@@@std@@@std@@@std@@PEAU123@@std@@YAPEAU_Grp_t@?$_Tgt_state_t@V?$_String_const_iterator@V?$_String_val@U?$_Simple_types@D@std@@@std@@@std@@@0@PEAU120@00@Z
	??$_Copy_memmove@PEAU_Loop_vals_t@std@@PEAU12@@std@@YAPEAU_Loop_vals_t@0@PEAU10@00@Z
	??$_Copy_memmove@PEAV?$complex@N@std@@PEAV12@@std@@YAPEAV?$complex@N@0@PEAV10@00@Z
	??$_Copy_memmove@PEAV?$sub_match@PEBD@std@@PEAV12@@std@@YAPEAV?$sub_match@PEBD@0@PEAV10@00@Z
	??$_Copy_memmove@PEAV?$sub_match@V?$_String_const_iterator@V?$_String_val@U?$_Simple_types@D@std@@@std@@@std@@@std@@PEAV12@@std@@YAPEAV?$sub_match@V?$_String_const_iterator@V?$_String_val@U?$_Simple_types@D@std@@@std@@@std@@@0@PEAV10@00@Z
	??$_Copy_memmove@PEA_JPEA_J@std@@YAPEA_JPEA_J00@Z
	??$_Copy_memmove@PEA_KPEA_K@std@@YAPEA_KPEA_K00@Z
	??$_Copy_memmove@PEBDPEAD@std@@YAPEADPEBD0PEAD@Z
	??$_Copy_memmove@PEBHPEAH@std@@YAPEAHPEBH0PEAH@Z
	??$_Copy_memmove@PEBQ6ANUQureg@@V?$vector@HV?$allocator@H@std@@@std@@1@ZPEAP6AN011@Z@std@@YAPEAP6ANUQureg@@V?$vector@HV?$allocator@H@std@@@0@1@ZPEBQ6AN011@Z2PEAP6AN011@Z@Z
	??$_Copy_memmove@PEBQ6AXPEANUQureg@@V?$vector@HV?$allocator@H@std@@@std@@@ZPEAP6AX012@Z@std@@YAPEAP6AXPEANUQureg@@V?$vector@HV?$allocator@H@std@@@0@@ZPEBQ6AX012@Z3PEAP6AX012@Z@Z
	??$_Copy_memmove@PEBQ6AXUQureg@@0V?$vector@HV?$allocator@H@std@@@std@@1@ZPEAP6AX0011@Z@std@@YAPEAP6AXUQureg@@0V?$vector@HV?$allocator@H@std@@@0@1@ZPEBQ6AX0011@Z2PEAP6AX0011@Z@Z
	??$_Copy_memmove@PEBQ6AXUQureg@@V?$vector@HV?$allocator@H@std@@@std@@1111V?$complex@N@3@2@ZPEAP6AX01111122@Z@std@@YAPEAP6AXUQureg@@V?$vector@HV?$allocator@H@std@@@0@1111V?$complex@N@0@2@ZPEBQ6AX01111122@Z3PEAP6AX01111122@Z@Z
	??$_Copy_memmove@PEBQ6AXUQureg@@V?$vector@HV?$allocator@H@std@@@std@@1111V?$complex@N@3@2_J@ZPEAP6AX011111223@Z@std@@YAPEAP6AXUQureg@@V?$vector@HV?$allocator@H@std@@@0@1111V?$complex@N@0@2_J@ZPEBQ6AX011111223@Z4PEAP6AX011111223@Z@Z
	??$_Copy_memmove@PEBQ6AXUQureg@@V?$vector@HV?$allocator@H@std@@@std@@11UCompMatr@@@ZPEAP6AX01112@Z@std@@YAPEAP6AXUQureg@@V?$vector@HV?$allocator@H@std@@@0@11UCompMatr@@@ZPEBQ6AX01112@Z3PEAP6AX01112@Z@Z
	??$_Copy_memmove@PEBQ6AXUQureg@@V?$vector@HV?$allocator@H@std@@@std@@11UDiagMatr@@V?$complex@N@3@@ZPEAP6AX011123@Z@std@@YAPEAP6AXUQureg@@V?$vector@HV?$allocator@H@std@@@0@11UDiagMatr@@V?$complex@N@0@@ZPEBQ6AX011123@Z4PEAP6AX011123@Z@Z
	??$_Copy_memmove@PEBQ6AXUQureg@@V?$vector@HV?$allocator@H@std@@@std@@11V?$complex@N@3@2@ZPEAP6AX011122@Z@std@@YAPEAP6AXUQureg@@V?$vector@HV?$allocator@H@std@@@0@11V?$complex@N@0@2@ZPEBQ6AX011122@Z3PEAP6AX011122@Z@Z
	??$_Copy_memmove@PEBQ6AXUQureg@@V?$vector@HV?$allocator@H@std@@@std@@1@ZPEAP6AX011@Z@std@@YAPEAP6AXUQureg@@V?$vector@HV?$allocator@H@std@@@0@1@ZPEBQ6AX011@Z2PEAP6AX011@Z@Z
	??$_Copy_memmove@PEBQ6AXUQureg@@V?$vector@HV?$allocator@H@std@@@std@@1HH@ZPEAP6AX011HH@Z@std@@YAPEAP6AXUQureg@@V?$vector@HV?$allocator@H@std@@@0@1HH@ZPEBQ6AX011HH@Z2PEAP6AX011HH@Z@Z
	??$_Copy_memmove@PEBQ6AXUQureg@@V?$vector@HV?$allocator@H@std@@@std@@1HHUCompMatr2@@@ZPEAP6AX011HH2@Z@std@@YAPEAP6AXUQureg@@V?$vector@HV?$allocator@H@std@@@0@1HHUCompMatr2@@@ZPEBQ6AX011HH2@Z3PEAP6AX011HH2@Z@Z
	??$_Copy_memmove@PEBQ6AXUQureg@@V?$vector@HV?$allocator@H@std@@@std@@1HHUDiagMatr2@@@ZPEAP6AX011HH2@Z@std@@YAPEAP6AXUQureg@@V?$vector@HV?$allocator@H@std@@@0@1HHUDiagMatr2@@@ZPEBQ6AX011HH2@Z3PEAP6AX011HH2@Z@Z
	??$_Copy_memmove@PEBQ6AXUQureg@@V?$vector@HV?$allocator@H@std@@@std@@1HUCompMatr1@@@ZPEAP6AX011H2@Z@std@@YAPEAP6AXUQureg@@V?$vector@HV?$allocator@H@std@@@0@1HUCompMatr1@@@ZPEBQ6AX011H2@Z3PEAP6AX011H2@Z@Z
	??$_Copy_memmove@PEBQ6AXUQureg@@V?$vector@HV?$allocator@H@std@@@std@@1HUDiagMatr1@@@ZPEAP6AX011H2@Z@std@@YAPEAP6AXUQureg@@V?$vector@HV?$allocator@H@std@@@0@1HUDiagMatr1@@@ZPEBQ6AX011H2@Z3PEAP6AX011H2@Z@Z
	??$_Copy_memmove@PEBQ6AXUQureg@@V?$vector@HV?$allocator@H@std@@@std@@1N@ZPEAP6AX011N@Z@std@@YAPEAP6AXUQureg@@V?$vector@HV?$allocator@H@std@@@0@1N@ZPEBQ6AX011N@Z2PEAP6AX011N@Z@Z
	??$_Copy_memmove@PEBQ6AXUQureg@@V?$vector@HV?$allocator@H@std@@@std@@1V?$complex@N@3@2@ZPEAP6AX01122@Z@std@@YAPEAP6AXUQureg@@V?$vector@HV?$allocator@H@std@@@0@1V?$complex@N@0@2@ZPEBQ6AX01122@Z3PEAP6AX01122@Z@Z
	??$_Copy_memmove@PEBQ6A_JUQureg@@V?$vector@HV?$allocator@H@std@@@std@@1@ZPEAP6A_J011@Z@std@@YAPEAP6A_JUQureg@@V?$vector@HV?$allocator@H@std@@@0@1@ZPEBQ6A_J011@Z2PEAP6A_J011@Z@Z
	??$_Copy_memmove@PEBV?$complex@N@std@@PEAV12@@std@@YAPEAV?$complex@N@0@PEBV10@0PEAV10@@Z
	??$_Copy_memmove_n@PEAHPEAH@std@@YAPEAHPEAH_K0@Z
	??$_Copy_memmove_n@PEAIPEAI@std@@YAPEAIPEAI_K0@Z
	??$_Copy_memmove_n@PEAUGateOp@@PEAU1@@std@@YAPEAUGateOp@@PEAU1@_K0@Z
	??$_Copy_memmove_n@PEAU_Grp_t@?$_Tgt_state_t@PEBD@std@@PEAU123@@std@@YAPEAU_Grp_t@?$_Tgt_state_t@PEBD@0@PEAU120@_K0@Z
	??$_Copy_memmove_n@PEAU_Grp_t@?$_Tgt_state_t@V?$_String_const_iterator@V?$_String_val@U?$_Simple_types@D@std@@@std@@@std@@@std@@PEAU123@@std@@YAPEAU_Grp_t@?$_Tgt_state_t@V?$_String_const_iterator@V?$_String_val@U?$_Simple_types@D@std@@@std@@@std@@@0@PEAU120@_K0@Z
	??$_Copy_memmove_n@PEBHPEAH@std@@YAPEAHPEBH_KPEAH@Z
	??$_Copy_memmove_n@PEBUGateOp@@PEAU1@@std@@YAPEAUGateOp@@PEBU1@_KPEAU1@@Z
	??$_Copy_memmove_tail@PEAD@std@@YAPEADQEBDQEAD_K2@Z
	??$_Copy_memmove_tail@PEAH@std@@YAPEAHQEBDQEAH_K2@Z
	??$_Copy_memmove_tail@PEAI@std@@YAPEAIQEBDQEAI_K2@Z
	??$_Copy_memmove_tail@PEAN@std@@YAPEANQEBDQEAN_K2@Z
	??$_Copy_memmove_tail@PEAP6ANUQureg@@V?$vector@HV?$allocator@H@std@@@std@@1@Z@std@@YAPEAP6ANUQureg@@V?$vector@HV?$allocator@H@std@@@0@1@ZQEBDQEAP6AN011@Z_K4@Z
	??$_Copy_memmove_tail@PEAP6AXPEANUQureg@@V?$vector@HV?$allocator@H@std@@@std@@@Z@std@@YAPEAP6AXPEANUQureg@@V?$vector@HV?$allocator@H@std@@@0@@ZQEBDQEAP6AX012@Z_K5@Z
	??$_Copy_memmove_tail@PEAP6AXUQureg@@0V?$vector@HV?$allocator@H@std@@@std@@1@Z@std@@YAPEAP6AXUQureg@@0V?$vector@HV?$allocator@H@std@@@0@1@ZQEBDQEAP6AX0011@Z_K4@Z
	??$_Copy_memmove_tail@PEAP6AXUQureg@@V?$vector@HV?$allocator@H@std@@@std@@1111V?$complex@N@3@2@Z@std@@YAPEAP6AXUQureg@@V?$vector@HV?$allocator@H@std@@@0@1111V?$complex@N@0@2@ZQEBDQEAP6AX01111122@Z_K5@Z
	??$_Copy_memmove_tail@PEAP6AXUQureg@@V?$vector@HV?$allocator@H@std@@@std@@1111V?$complex@N@3@2_J@Z@std@@YAPEAP6AXUQureg@@V?$vector@HV?$allocator@H@std@@@0@1111V?$complex@N@0@2_J@ZQEBDQEAP6AX011111223@Z_K6@Z
	??$_Copy_memmove_tail@PEAP6AXUQureg@@V?$vector@HV?$allocator@H@std@@@std@@11UCompMatr@@@Z@std@@YAPEAP6AXUQureg@@V?$vector@HV?$allocator@H@std@@@0@11UCompMatr@@@ZQEBDQEAP6AX01112@Z_K5@Z
	??$_Copy_memmove_tail@PEAP6AXUQureg@@V?$vector@HV?$allocator@H@std@@@std@@11UDiagMatr@@V?$complex@N@3@@Z@std@@YAPEAP6AXUQureg@@V?$vector@HV?$allocator@H@std@@@0@11UDiagMatr@@V?$complex@N@0@@ZQEBDQEAP6AX011123@Z_K6@Z
	??$_Copy_memmove_tail@PEAP6AXUQureg@@V?$vector@HV?$allocator@H@std@@@std@@11V?$complex@N@3@2@Z@std@@YAPEAP6AXUQureg@@V?$vector@HV?$allocator@H@std@@@0@11V?$complex@N@0@2@ZQEBDQEAP6AX011122@Z_K5@Z
	??$_Copy_memmove_tail@PEAP6AXUQureg@@V?$vector@HV?$allocator@H@std@@@std@@1@Z@std@@YAPEAP6AXUQureg@@V?$vector@HV?$allocator@H@std@@@0@1@ZQEBDQEAP6AX011@Z_K4@Z
	??$_Copy_memmove_tail@PEAP6AXUQureg@@V?$vector@HV?$allocator@H@std@@@std@@1HH@Z@std@@YAPEAP6AXUQureg@@V?$vector@HV?$allocator@H@std@@@0@1HH@ZQEBDQEAP6AX011HH@Z_K4@Z
	??$_Copy_memmove_tail@PEAP6AXUQureg@@V?$vector@HV?$allocator@H@std@@@std@@1HHUCompMatr2@@@Z@std@@YAPEAP6AXUQureg@@V?$vector@HV?$allocator@H@std@@@0@1HHUCompMatr2@@@ZQEBDQEAP6AX011HH2@Z_K5@Z
	??$_Copy_memmove_tail@PEAP6AXUQureg@@V?$vector@HV?$allocator@H@std@@@std@@1HHUDiagMatr2@@@Z@std@@YAPEAP6AXUQureg@@V?$vector@HV?$allocator@H@std@@@0@1HHUDiagMatr2@@@ZQEBDQEAP6AX011HH2@Z_K5@Z
	??$_Copy_memmove_tail@PEAP6AXUQureg@@V?$vector@HV?$allocator@H@std@@@std@@1HUCompMatr1@@@Z@std@@YAPEAP6AXUQureg@@V?$vector@HV?$allocator@H@std@@@0@1HUCompMatr1@@@ZQEBDQEAP6AX011H2@Z_K5@Z
	??$_Copy_memmove_tail@PEAP6AXUQureg@@V?$vector@HV?$allocator@H@std@@@std@@1HUDiagMatr1@@@Z@std@@YAPEAP6AXUQureg@@V?$vector@HV?$allocator@H@std@@@0@1HUDiagMatr1@@@ZQEBDQEAP6AX011H2@Z_K5@Z
	??$_Copy_memmove_tail@PEAP6AXUQureg@@V?$vector@HV?$allocator@H@std@@@std@@1N@Z@std@@YAPEAP6AXUQureg@@V?$vector@HV?$allocator@H@std@@@0@1N@ZQEBDQEAP6AX011N@Z_K4@Z
	??$_Copy_memmove_tail@PEAP6AXUQureg@@V?$vector@HV?$allocator@H@std@@@std@@1V?$complex@N@3@2@Z@std@@YAPEAP6AXUQureg@@V?$vector@HV?$allocator@H@std@@@0@1V?$complex@N@0@2@ZQEBDQEAP6AX01122@Z_K5@Z
	??$_Copy_memmove_tail@PEAP6A_JUQureg@@V?$vector@HV?$allocator@H@std@@@std@@1@Z@std@@YAPEAP6A_JUQureg@@V?$vector@HV?$allocator@H@std@@@0@1@ZQEBDQEAP6A_J011@Z_K4@Z
	??$_Copy_memmove_tail@PEAPEAUBlockData@@@std@@YAPEAPEAUBlockData@@QEBDQEAPEAU1@_K2@Z
	??$_Copy_memmove_tail@PEAPEAUGateOp@@@std@@YAPEAPEAUGateOp@@QEBDQEAPEAU1@_K2@Z
	??$_Copy_memmove_tail@PEAPEAV?$complex@N@std@@@std@@YAPEAPEAV?$complex@N@0@QEBDQEAPEAV10@_K2@Z
	??$_Copy_memmove_tail@PEAU?$pair@HH@std@@@std@@YAPEAU?$pair@HH@0@QEBDQEAU10@_K2@Z
	??$_Copy_memmove_tail@PEAUGateOp@@@std@@YAPEAUGateOp@@QEBDQEAU1@_K2@Z
	??$_Copy_memmove_tail@PEAUPauliStr@@@std@@YAPEAUPauliStr@@QEBDQEAU1@_K2@Z
	??$_Copy_memmove_tail@PEAU_Grp_t@?$_Tgt_state_t@PEBD@std@@@std@@YAPEAU_Grp_t@?$_Tgt_state_t@PEBD@0@QEBDQEAU120@_K2@Z
	??$_Copy_memmove_tail@PEAU_Grp_t@?$_Tgt_state_t@V?$_String_const_iterator@V?$_String_val@U?$_Simple_types@D@std@@@std@@@std@@@std@@@std@@YAPEAU_Grp_t@?$_Tgt_state_t@V?$_String_const_iterator@V?$_String_val@U?$_Simple_types@D@std@@@std@@@std@@@0@QEBDQEAU120@_K2@Z
	??$_Copy_memmove_tail@PEAU_Loop_vals_t@std@@@std@@YAPEAU_Loop_vals_t@0@QEBDQEAU10@_K2@Z
	??$_Copy_memmove_tail@PEAV?$complex@N@std@@@std@@YAPEAV?$complex@N@0@QEBDQEAV10@_K2@Z
	??$_Copy_memmove_tail@PEAV?$sub_match@PEBD@std@@@std@@YAPEAV?$sub_match@PEBD@0@QEBDQEAV10@_K2@Z
	??$_Copy_memmove_tail@PEAV?$sub_match@V?$_String_const_iterator@V?$_String_val@U?$_Simple_types@D@std@@@std@@@std@@@std@@@std@@YAPEAV?$sub_match@V?$_String_const_iterator@V?$_String_val@U?$_Simple_types@D@std@@@std@@@std@@@0@QEBDQEAV10@_K2@Z
	??$_Copy_memmove_tail@PEA_J@std@@YAPEA_JQEBDQEA_J_K2@Z
	??$_Copy_memmove_tail@PEA_K@std@@YAPEA_KQEBDQEA_K_K2@Z
	??$_Copy_nodes@$0A@@?$_Tree@V?$_Tmap_traits@V?$basic_string@DU?$char_traits@D@std@@V?$allocator@D@2@@std@@_JU?$less@V?$basic_string@DU?$char_traits@D@std@@V?$allocator@D@2@@std@@@2@V?$allocator@U?$pair@$$CBV?$basic_string@DU?$char_traits@D@std@@V?$allocator@D@2@@std@@_J@std@@@2@$0A@@std@@@std@@IEAAPEAU?$_Tree_node@U?$pair@$$CBV?$basic_string@DU?$char_traits@D@std@@V?$allocator@D@2@@std@@_J@std@@PEAX@1@PEAU21@0@Z
	??$_Copy_vbool@V?$_Vb_iterator@U?$_Wrap_alloc@V?$allocator@I@std@@@std@@@std@@V12@@std@@YA?AV?$_Vb_iterator@U?$_Wrap_alloc@V?$allocator@I@std@@@std@@@0@V10@00@Z
	??$_Count_vectorized@DD@std@@YA_KQEAD0D@Z
	??$_Emplace_reallocate@AEAHAEAH@?$vector@U?$pair@HH@std@@V?$allocator@U?$pair@HH@std@@@2@@std@@AEAAPEAU?$pair@HH@1@QEAU21@AEAH1@Z
	??$_Emplace_reallocate@AEBUSubCircuit@@@?$vector@USubCircuit@@V?$allocator@USubCircuit@@@std@@@std@@AEAAPEAUSubCircuit@@QEAU2@AEBU2@@Z
	??$_Emplace_reallocate@AEBUTransition@@@?$vector@UTransition@@V?$allocator@UTransition@@@std@@@std@@AEAAPEAUTransition@@QEAU2@AEBU2@@Z
	??$_Emplace_reallocate@AEBV?$tuple@UPauliStr@@V?$complex@N@std@@@std@@@?$vector@V?$tuple@UPauliStr@@V?$complex@N@std@@@std@@V?$allocator@V?$tuple@UPauliStr@@V?$complex@N@std@@@std@@@2@@std@@AEAAPEAV?$tuple@UPauliStr@@V?$complex@N@std@@@1@QEAV21@AEBV21@@Z
	??$_Emplace_reallocate@UGateOp@@@?$vector@UGateOp@@V?$allocator@UGateOp@@@std@@@std@@AEAAPEAUGateOp@@QEAU2@$$QEAU2@@Z
	??$_Emplace_reallocate@V?$tuple@V?$basic_string@DU?$char_traits@D@std@@V?$allocator@D@2@@std@@V12@@std@@@?$vector@V?$tuple@V?$basic_string@DU?$char_traits@D@std@@V?$allocator@D@2@@std@@V12@@std@@V?$allocator@V?$tuple@V?$basic_string@DU?$char_traits@D@std@@V?$allocator@D@2@@std@@V12@@std@@@2@@std@@AEAAPEAV?$tuple@V?$basic_string@DU?$char_traits@D@std@@V?$allocator@D@2@@std@@V12@@1@QEAV21@$$QEAV21@@Z
	??$_Erase_tree@V?$allocator@U?$_Tree_node@HPEAX@std@@@std@@@?$_Tree_val@U?$_Tree_simple_types@H@std@@@std@@QEAAXAEAV?$allocator@U?$_Tree_node@HPEAX@std@@@1@PEAU?$_Tree_node@HPEAX@1@@Z
	??$_Erase_tree@V?$allocator@U?$_Tree_node@U?$pair@$$CBV?$basic_string@DU?$char_traits@D@std@@V?$allocator@D@2@@std@@_J@std@@PEAX@std@@@std@@@?$_Tree_val@U?$_Tree_simple_types@U?$pair@$$CBV?$basic_string@DU?$char_traits@D@std@@V?$allocator@D@2@@std@@_J@std@@@std@@@std@@QEAAXAEAV?$allocator@U?$_Tree_node@U?$pair@$$CBV?$basic_string@DU?$char_traits@D@std@@V?$allocator@D@2@@std@@_J@std@@PEAX@std@@@1@PEAU?$_Tree_node@U?$pair@$$CBV?$basic_string@DU?$char_traits@D@std@@V?$allocator@D@2@@std@@_J@std@@PEAX@1@@Z
	??$_Erase_tree_and_orphan@V?$allocator@U?$_Tree_node@U?$pair@$$CBV?$basic_string@DU?$char_traits@D@std@@V?$allocator@D@2@@std@@_J@std@@PEAX@std@@@std@@@?$_Tree_val@U?$_Tree_simple_types@U?$pair@$$CBV?$basic_string@DU?$char_traits@D@std@@V?$allocator@D@2@@std@@_J@std@@@std@@@std@@QEAAXAEAV?$allocator@U?$_Tree_node@U?$pair@$$CBV?$basic_string@DU?$char_traits@D@std@@V?$allocator@D@2@@std@@_J@std@@PEAX@std@@@1@PEAU?$_Tree_node@U?$pair@$$CBV?$basic_string@DU?$char_traits@D@std@@V?$allocator@D@2@@std@@_J@std@@PEAX@1@@Z
	??$_Fill_zero_memset@PEAH@std@@YAXPEAH_K@Z
	??$_Fill_zero_memset@PEAI@std@@YAXPEAI_K@Z
	??$_Fill_zero_memset@PEAN@std@@YAXPEAN_K@Z
	??$_Fill_zero_memset@PEA_J@std@@YAXPEA_J_K@Z
	??$_Fill_zero_memset@PEA_K@std@@YAXPEA_K_K@Z
	??$_Find_hint@H@?$_Tree@V?$_Tset_traits@HU?$less@H@std@@V?$allocator@H@2@$0A@@std@@@std@@IEBA?AU?$_Tree_find_hint_result@PEAU?$_Tree_node@HPEAX@std@@@1@QEAU?$_Tree_node@HPEAX@1@AEBH@Z
	??$_Find_hint@V?$basic_string@DU?$char_traits@D@std@@V?$allocator@D@2@@std@@@?$_Tree@V?$_Tmap_traits@V?$basic_string@DU?$char_traits@D@std@@V?$allocator@D@2@@std@@_JU?$less@V?$basic_string@DU?$char_traits@D@std@@V?$allocator@D@2@@std@@@2@V?$allocator@U?$pair@$$CBV?$basic_string@DU?$char_traits@D@std@@V?$allocator@D@2@@std@@_J@std@@@2@$0A@@std@@@std@@IEBA?AU?$_Tree_find_hint_result@PEAU?$_Tree_node@U?$pair@$$CBV?$basic_string@DU?$char_traits@D@std@@V?$allocator@D@2@@std@@_J@std@@PEAX@std@@@1@QEAU?$_Tree_node@U?$pair@$$CBV?$basic_string@DU?$char_traits@D@std@@V?$allocator@D@2@@std@@_J@std@@PEAX@1@AEBV?$basic_string@DU?$char_traits@D@std@@V?$allocator@D@2@@1@@Z
	??$_Find_lower_bound@V?$basic_string@DU?$char_traits@D@std@@V?$allocator@D@2@@std@@@?$_Tree@V?$_Tmap_traits@V?$basic_string@DU?$char_traits@D@std@@V?$allocator@D@2@@std@@_JU?$less@V?$basic_string@DU?$char_traits@D@std@@V?$allocator@D@2@@std@@@2@V?$allocator@U?$pair@$$CBV?$basic_string@DU?$char_traits@D@std@@V?$allocator@D@2@@std@@_J@std@@@2@$0A@@std@@@std@@IEBA?AU?$_Tree_find_result@PEAU?$_Tree_node@U?$pair@$$CBV?$basic_string@DU?$char_traits@D@std@@V?$allocator@D@2@@std@@_J@std@@PEAX@std@@@1@AEBV?$basic_string@DU?$char_traits@D@std@@V?$allocator@D@2@@1@@Z
	??$_Find_vectorized@$$CBDD@std@@YAPEBDQEBD0D@Z
	??$_Find_vectorized@$$CBDE@std@@YAPEBDQEBD0E@Z
	??$_Find_vectorized@$$CBHH@std@@YAPEBHQEBH0H@Z
	??$_Find_vectorized@HH@std@@YAPEAHQEAH0H@Z
	??$_Fnv1a_append_value@H@std@@YA_K_KAEBH@Z
	??$_Fnv1a_append_value@_K@std@@YA_K_KAEB_K@Z
	??$_Getvals@_W@?$time_get@DV?$istreambuf_iterator@DU?$char_traits@D@std@@@std@@@std@@IEAAX_WAEBV_Locinfo@1@@Z
	??$_Getvals@_W@?$time_get@_WV?$istreambuf_iterator@_WU?$char_traits@_W@std@@@std@@@std@@IEAAX_WAEBV_Locinfo@1@@Z
	??$_Guess_median_unchecked@PEAHU?$less@X@std@@@std@@YAXPEAH00U?$less@X@0@@Z
	??$_Hash_array_representation@D@std@@YA_KQEBD_K@Z
	??$_Hash_representation@H@std@@YA_KAEBH@Z
	??$_Hash_representation@_K@std@@YA_KAEB_K@Z
	??$_Immortalize_memcpy_image@V_Generic_error_category@std@@@std@@YAAEBV_Generic_error_category@0@XZ
	??$_Immortalize_memcpy_image@V_System_error_category@std@@@std@@YAAEBV_System_error_category@0@XZ
	??$_Insert2@PEBD@?$_Buf@D@std@@QEAAXPEBD0@Z
	??$_Insert_counted_range@PEAH@?$vector@HV?$allocator@H@std@@@std@@AEAAXV?$_Vector_const_iterator@V?$_Vector_val@U?$_Simple_types@H@std@@@std@@@1@PEAH_K@Z
	??$_Insert_string@DU?$char_traits@D@std@@_K@std@@YAAEAV?$basic_ostream@DU?$char_traits@D@std@@@0@AEAV10@QEBD_K@Z
	??$_Integral_to_string@DH@std@@YA?AV?$basic_string@DU?$char_traits@D@std@@V?$allocator@D@2@@0@H@Z
	??$_Integral_to_string@D_J@std@@YA?AV?$basic_string@DU?$char_traits@D@std@@V?$allocator@D@2@@0@_J@Z
	??$_Integral_to_string@D_K@std@@YA?AV?$basic_string@DU?$char_traits@D@std@@V?$allocator@D@2@@0@_K@Z
	??$_Is_all_bits_zero@H@std@@YA_NAEBH@Z
	??$_Is_all_bits_zero@I@std@@YA_NAEBI@Z
	??$_Is_all_bits_zero@N@std@@YA_NAEBN@Z
	??$_Is_all_bits_zero@_J@std@@YA_NAEB_J@Z
	??$_Is_all_bits_zero@_K@std@@YA_NAEB_K@Z
	??$_Log_abs@N@std@@YANAEBV?$complex@N@0@@Z
	??$_Log_hypot@N@_Math_algorithms@std@@YANNN@Z
	??$_Logp1@N@_Math_algorithms@std@@YANN@Z
	??$_Lookup_coll@PEBDD@std@@YAPEBDPEBD0PEBU?$_Sequence@D@0@@Z
	??$_Lookup_coll@V?$_String_const_iterator@V?$_String_val@U?$_Simple_types@D@std@@@std@@@std@@D@std@@YA?AV?$_String_const_iterator@V?$_String_val@U?$_Simple_types@D@std@@@std@@@0@V10@0PEBU?$_Sequence@D@0@@Z
	??$_Lookup_equiv@DV?$regex_traits@D@std@@@std@@YA_NEPEBU?$_Sequence@D@0@AEBV?$regex_traits@D@0@@Z
	??$_Lookup_range@D@std@@YA_NIPEBU?$_Buf@D@0@@Z
	??$_Match@V?$allocator@V?$sub_match@PEBD@std@@@std@@@?$_Matcher@PEBDDV?$regex_traits@D@std@@PEBD@std@@QEAA_NPEAV?$match_results@PEBDV?$allocator@V?$sub_match@PEBD@std@@@std@@@1@_N@Z
	??$_Match@V?$allocator@V?$sub_match@V?$_String_const_iterator@V?$_String_val@U?$_Simple_types@D@std@@@std@@@std@@@std@@@std@@@?$_Matcher@V?$_String_const_iterator@V?$_String_val@U?$_Simple_types@D@std@@@std@@@std@@DV?$regex_traits@D@2@V12@@std@@QEAA_NPEAV?$match_results@V?$_String_const_iterator@V?$_String_val@U?$_Simple_types@D@std@@@std@@@std@@V?$allocator@V?$sub_match@V?$_String_const_iterator@V?$_String_val@U?$_Simple_types@D@std@@@std@@@std@@@std@@@2@@1@_N@Z
	??$_Max_element_vectorized@H@std@@YAPEAHQEAH0@Z
	??$_Med3_unchecked@PEAU?$pair@HH@std@@U?$greater@X@2@@std@@YAXPEAU?$pair@HH@0@00U?$greater@X@0@@Z
	??$_Med3_unchecked@PEAU?$pair@HH@std@@U?$less@X@2@@std@@YAXPEAU?$pair@HH@0@00U?$less@X@0@@Z
	??$_Min_element_vectorized@$$CBH@std@@YAPEBHQEBH0@Z
	??$_Min_vectorized@$$CBH@std@@YA?A_PQEBH0@Z
	??$_Move_unchecked@PEAHPEAH@std@@YAPEAHPEAH00@Z
	??$_Norm_minus_one@N@_Math_algorithms@std@@YANNN@Z
	??$_Nrand_impl@NV?$mersenne_twister_engine@_K$0EA@$0BDI@$0JM@$0BP@$0?EKPNJAKFFGJJOGBH@$0BN@$0FFFFFFFFFFFFFFFF@$0BB@$0HBNGHPPPONKGAAAA@$0CF@$0?IBBCAAAAAAAAA@$0CL@$0FIFBPECNEMJFHPCN@@std@@@std@@YANAEAV?$mersenne_twister_engine@_K$0EA@$0BDI@$0JM@$0BP@$0?EKPNJAKFFGJJOGBH@$0BN@$0FFFFFFFFFFFFFFFF@$0BB@$0HBNGHPPPONKGAAAA@$0CF@$0?IBBCAAAAAAAAA@$0CL@$0FIFBPECNEMJFHPCN@@0@@Z
	??$_Partition_by_median_guess_unchecked@PEAU?$pair@HH@std@@U?$greater@X@2@@std@@YA?AU?$pair@PEAU?$pair@HH@std@@PEAU12@@0@PEAU?$pair@HH@0@0U?$greater@X@0@@Z
	??$_Partition_by_median_guess_unchecked@PEAU?$pair@HH@std@@U?$less@X@2@@std@@YA?AU?$pair@PEAU?$pair@HH@std@@PEAU12@@0@PEAU?$pair@HH@0@0U?$less@X@0@@Z
	??$_Polar_positive_nan_inf_zero_rho@N@std@@YA?AV?$complex@N@0@AEBN0@Z
	??$_Pop_heap_hole_by_index@PEAU?$pair@HH@std@@U12@U?$greater@X@2@@std@@YAXPEAU?$pair@HH@0@_J1$$QEAU10@U?$greater@X@0@@Z
	??$_Pop_heap_hole_by_index@PEAU?$pair@HH@std@@U12@U?$less@X@2@@std@@YAXPEAU?$pair@HH@0@_J1$$QEAU10@U?$less@X@0@@Z
	??$_Pow@N@std@@YA?AV?$complex@N@0@AEBN0@Z
	??$_Reallocate_grow_by@V<lambda_55b0f89b53a0342680e40398a0d39887>@@_K_KPEBD_K@?$basic_string@DU?$char_traits@D@std@@V?$allocator@D@2@@std@@AEAAAEAV01@_KV<lambda_55b0f89b53a0342680e40398a0d39887>@@_K2PEBD2@Z
	??$_Reallocate_grow_by@V<lambda_a3050a43f3157934f354774ab3dd2e02>@@_K_W@?$basic_string@_WU?$char_traits@_W@std@@V?$allocator@_W@2@@std@@AEAAAEAV01@_KV<lambda_a3050a43f3157934f354774ab3dd2e02>@@_K_W@Z
	??$_Reallocate_grow_by@V<lambda_b986da8d428e4af07c64af60eec09b61>@@_K_KD@?$basic_string@DU?$char_traits@D@std@@V?$allocator@D@2@@std@@AEAAAEAV01@_KV<lambda_b986da8d428e4af07c64af60eec09b61>@@_K2D@Z
	??$_Reallocate_grow_by@V<lambda_f3a66ab6a0570788f31503db83886f49>@@_KPEBD_K@?$basic_string@DU?$char_traits@D@std@@V?$allocator@D@2@@std@@AEAAAEAV01@_KV<lambda_f3a66ab6a0570788f31503db83886f49>@@_KPEBD2@Z
	??$_Regex_match1@PEBDV?$allocator@V?$sub_match@PEBD@std@@@std@@DV?$regex_traits@D@2@PEBD@std@@YA_NPEBD0PEAV?$match_results@PEBDV?$allocator@V?$sub_match@PEBD@std@@@std@@@0@AEBV?$basic_regex@DV?$regex_traits@D@std@@@0@W4match_flag_type@regex_constants@0@_N@Z
	??$_Regex_match1@V?$_String_const_iterator@V?$_String_val@U?$_Simple_types@D@std@@@std@@@std@@V?$allocator@V?$sub_match@V?$_String_const_iterator@V?$_String_val@U?$_Simple_types@D@std@@@std@@@std@@@std@@@2@DV?$regex_traits@D@2@V12@@std@@YA_NV?$_String_const_iterator@V?$_String_val@U?$_Simple_types@D@std@@@std@@@0@0PEAV?$match_results@V?$_String_const_iterator@V?$_String_val@U?$_Simple_types@D@std@@@std@@@std@@V?$allocator@V?$sub_match@V?$_String_const_iterator@V?$_String_val@U?$_Simple_types@D@std@@@std@@@std@@@std@@@2@@0@AEBV?$basic_regex@DV?$regex_traits@D@std@@@0@W4match_flag_type@regex_constants@0@_N@Z
	??$_Regex_search2@V?$_String_const_iterator@V?$_String_val@U?$_Simple_types@D@std@@@std@@@std@@V?$allocator@V?$sub_match@V?$_String_const_iterator@V?$_String_val@U?$_Simple_types@D@std@@@std@@@std@@@std@@@2@DV?$regex_traits@D@2@V12@@std@@YA_NV?$_String_const_iterator@V?$_String_val@U?$_Simple_types@D@std@@@std@@@0@0PEAV?$match_results@V?$_String_const_iterator@V?$_String_val@U?$_Simple_types@D@std@@@std@@@std@@V?$allocator@V?$sub_match@V?$_String_const_iterator@V?$_String_val@U?$_Simple_types@D@std@@@std@@@std@@@std@@@2@@0@AEBV?$basic_regex@DV?$regex_traits@D@std@@@0@W4match_flag_type@regex_constants@0@0@Z
	??$_Reset@PEBD@?$basic_regex@DV?$regex_traits@D@std@@@std@@AEAAXPEBD0W4syntax_option_type@regex_constants@1@@Z
	??$_Resize@U_Value_init_tag@std@@@?$vector@HV?$allocator@H@std@@@std@@AEAAX_KAEBU_Value_init_tag@1@@Z
	??$_Resize@U_Value_init_tag@std@@@?$vector@IV?$allocator@I@std@@@std@@AEAAX_KAEBU_Value_init_tag@1@@Z
	??$_Resize@U_Value_init_tag@std@@@?$vector@NV?$allocator@N@std@@@std@@AEAAX_KAEBU_Value_init_tag@1@@Z
	??$_Resize@U_Value_init_tag@std@@@?$vector@PEAV?$complex@N@std@@V?$allocator@PEAV?$complex@N@std@@@2@@std@@AEAAX_KAEBU_Value_init_tag@1@@Z
	??$_Resize_reallocate@I@?$vector@IV?$allocator@I@std@@@std@@AEAAX_KAEBI@Z
	??$_Resize_reallocate@U_Value_init_tag@std@@@?$vector@U_Grp_t@?$_Tgt_state_t@PEBD@std@@V?$allocator@U_Grp_t@?$_Tgt_state_t@PEBD@std@@@3@@std@@AEAAX_KAEBU_Value_init_tag@1@@Z
	??$_Resize_reallocate@U_Value_init_tag@std@@@?$vector@U_Grp_t@?$_Tgt_state_t@V?$_String_const_iterator@V?$_String_val@U?$_Simple_types@D@std@@@std@@@std@@@std@@V?$allocator@U_Grp_t@?$_Tgt_state_t@V?$_String_const_iterator@V?$_String_val@U?$_Simple_types@D@std@@@std@@@std@@@std@@@3@@std@@AEAAX_KAEBU_Value_init_tag@1@@Z
	??$_Resize_reallocate@U_Value_init_tag@std@@@?$vector@U_Loop_vals_t@std@@V?$allocator@U_Loop_vals_t@std@@@2@@std@@AEAAX_KAEBU_Value_init_tag@1@@Z
	??$_Resize_reallocate@U_Value_init_tag@std@@@?$vector@V?$basic_string@DU?$char_traits@D@std@@V?$allocator@D@2@@std@@V?$allocator@V?$basic_string@DU?$char_traits@D@std@@V?$allocator@D@2@@std@@@2@@std@@AEAAX_KAEBU_Value_init_tag@1@@Z
	??$_Resize_reallocate@U_Value_init_tag@std@@@?$vector@V?$complex@N@std@@V?$allocator@V?$complex@N@std@@@2@@std@@AEAAX_KAEBU_Value_init_tag@1@@Z
	??$_Resize_reallocate@U_Value_init_tag@std@@@?$vector@V?$sub_match@PEBD@std@@V?$allocator@V?$sub_match@PEBD@std@@@2@@std@@AEAAX_KAEBU_Value_init_tag@1@@Z
	??$_Resize_reallocate@U_Value_init_tag@std@@@?$vector@V?$sub_match@V?$_String_const_iterator@V?$_String_val@U?$_Simple_types@D@std@@@std@@@std@@@std@@V?$allocator@V?$sub_match@V?$_String_const_iterator@V?$_String_val@U?$_Simple_types@D@std@@@std@@@std@@@std@@@2@@std@@AEAAX_KAEBU_Value_init_tag@1@@Z
	??$_Resize_reallocate@U_Value_init_tag@std@@@?$vector@V?$vector@V?$complex@N@std@@V?$allocator@V?$complex@N@std@@@2@@std@@V?$allocator@V?$vector@V?$complex@N@std@@V?$allocator@V?$complex@N@std@@@2@@std@@@2@@std@@AEAAX_KAEBU_Value_init_tag@1@@Z
	??$_Search_vectorized@$$CBD$$CBD@std@@YAPEBDQEBD00_K@Z
	??$_Sort_unchecked@PEAHU?$less@X@std@@@std@@YAXPEAH0_JU?$less@X@0@@Z
	??$_Sort_unchecked@PEAU?$pair@HH@std@@U?$greater@X@2@@std@@YAXPEAU?$pair@HH@0@0_JU?$greater@X@0@@Z
	??$_Sort_unchecked@PEAU?$pair@HH@std@@U?$less@X@2@@std@@YAXPEAU?$pair@HH@0@0_JU?$less@X@0@@Z
	??$_Stringoid_from_Source@DU?$char_traits@D@std@@V?$allocator@D@2@@filesystem@std@@YA?A_PAEBV?$basic_string@DU?$char_traits@D@std@@V?$allocator@D@2@@1@@Z
	??$_Test_callable@$$A6AXXZ@std@@YA_NA6AXXZ@Z
	??$_Try_emplace@AEBH$$V@?$_Hash@V?$_Umap_traits@HHV?$_Uhash_compare@HU?$hash@H@std@@U?$equal_to@H@2@@std@@V?$allocator@U?$pair@$$CBHH@std@@@2@$0A@@std@@@std@@IEAA?AU?$pair@PEAU?$_List_node@U?$pair@$$CBHH@std@@PEAX@std@@_N@1@AEBH@Z
	??$_Try_emplace@AEB_K$$V@?$_Hash@V?$_Umap_traits@_KV?$vector@V?$tuple@UPauliStr@@V?$complex@N@std@@@std@@V?$allocator@V?$tuple@UPauliStr@@V?$complex@N@std@@@std@@@2@@std@@V?$_Uhash_compare@_KU?$hash@_K@std@@U?$equal_to@_K@2@@2@V?$allocator@U?$pair@$$CB_KV?$vector@V?$tuple@UPauliStr@@V?$complex@N@std@@@std@@V?$allocator@V?$tuple@UPauliStr@@V?$complex@N@std@@@std@@@2@@std@@@std@@@2@$0A@@std@@@std@@IEAA?AU?$pair@PEAU?$_List_node@U?$pair@$$CB_KV?$vector@V?$tuple@UPauliStr@@V?$complex@N@std@@@std@@V?$allocator@V?$tuple@UPauliStr@@V?$complex@N@std@@@std@@@2@@std@@@std@@PEAX@std@@_N@1@AEB_K@Z
	??$_UIntegral_to_buff@DI@std@@YAPEADPEADI@Z
	??$_UIntegral_to_buff@D_K@std@@YAPEADPEAD_K@Z
	??$_Uninitialized_copy_unchecked@PEAPEAUBlockData@@PEAPEAU1@@std@@YAPEAPEAUBlockData@@PEAPEAU1@QEAPEAU1@0@Z
	??$_Uninitialized_copy_unchecked@PEAPEAUGateOp@@PEAPEAU1@@std@@YAPEAPEAUGateOp@@PEAPEAU1@QEAPEAU1@0@Z
	??$_Uninitialized_fill_n@V?$allocator@H@std@@@std@@YAPEAHPEAH_KAEBHAEAV?$allocator@H@0@@Z
	??$_Uninitialized_move@PEAHV?$allocator@H@std@@@std@@YAPEAHQEAH0PEAHAEAV?$allocator@H@0@@Z
	??$_Uninitialized_move@PEAUSubCircuit@@V?$allocator@USubCircuit@@@std@@@std@@YAPEAUSubCircuit@@QEAU1@0PEAU1@AEAV?$allocator@USubCircuit@@@0@@Z
	??$_Uninitialized_move@PEAUTransition@@V?$allocator@UTransition@@@std@@@std@@YAPEAUTransition@@QEAU1@0PEAU1@AEAV?$allocator@UTransition@@@0@@Z
	??$_Uninitialized_move@PEAV?$tuple@V?$basic_string@DU?$char_traits@D@std@@V?$allocator@D@2@@std@@V12@@std@@V?$allocator@V?$tuple@V?$basic_string@DU?$char_traits@D@std@@V?$allocator@D@2@@std@@V12@@std@@@2@@std@@YAPEAV?$tuple@V?$basic_string@DU?$char_traits@D@std@@V?$allocator@D@2@@std@@V12@@0@QEAV10@0PEAV10@AEAV?$allocator@V?$tuple@V?$basic_string@DU?$char_traits@D@std@@V?$allocator@D@2@@std@@V12@@std@@@0@@Z
	??$_Uninitialized_value_construct_n_unchecked1@PEAPEAUBlockData@@_K@std@@YAPEAPEAUBlockData@@PEAPEAU1@_K@Z
	??$_Uninitialized_value_construct_n_unchecked1@PEAPEAUGateOp@@_K@std@@YAPEAPEAUGateOp@@PEAPEAU1@_K@Z
	??$_Zero_range@PEAH@std@@YAPEAHQEAH0@Z
	??$_Zero_range@PEAI@std@@YAPEAIQEAI0@Z
	??$_Zero_range@PEAN@std@@YAPEANQEAN0@Z
	??$_Zero_range@PEAPEAUBlockData@@@std@@YAPEAPEAUBlockData@@QEAPEAU1@0@Z
	??$_Zero_range@PEAPEAUGateOp@@@std@@YAPEAPEAUGateOp@@QEAPEAU1@0@Z
	??$_Zero_range@PEAPEAV?$complex@N@std@@@std@@YAPEAPEAV?$complex@N@0@QEAPEAV10@0@Z
	??$_Zero_range@PEA_J@std@@YAPEA_JQEA_J0@Z
	??$_Zero_range@PEA_K@std@@YAPEA_KQEA_K0@Z
	??$abs@N@std@@YANAEBV?$complex@N@0@@Z
	??$anyCtrlTwoOrAnyTargDenseMatr@UCompMatr2@@@@YAXUQureg@@V?$vector@HV?$allocator@H@std@@@std@@11UCompMatr2@@_N@Z
	??$anyCtrlTwoOrAnyTargDenseMatr@UCompMatr@@@@YAXUQureg@@V?$vector@HV?$allocator@H@std@@@std@@11UCompMatr@@_N@Z
	??$assertAdditionalHeapMatrixFieldsAreValid@UCompMatr@@@@YAXUCompMatr@@PEBD@Z
	??$assertAdditionalHeapMatrixFieldsAreValid@UDiagMatr@@@@YAXUDiagMatr@@PEBD@Z
	??$assertAdditionalHeapMatrixFieldsAreValid@UFullStateDiagMatr@@@@YAXUFullStateDiagMatr@@PEBD@Z
	??$assertHeapObjectGpuMemIsAllocated@UCompMatr@@@@YAXUCompMatr@@@Z
	??$assertHeapObjectGpuMemIsAllocated@UDiagMatr@@@@YAXUDiagMatr@@@Z
	??$assertHeapObjectGpuMemIsAllocated@UFullStateDiagMatr@@@@YAXUFullStateDiagMatr@@@Z
	??$assertHeapObjectGpuMemIsAllocated@USuperOp@@@@YAXUSuperOp@@@Z
	??$assertMatrExpIsHermitian@UDiagMatr@@@@YAXUDiagMatr@@NPEBD@Z
	??$assertMatrExpIsHermitian@UFullStateDiagMatr@@@@YAXUFullStateDiagMatr@@NPEBD@Z
	??$assertMatrExpIsNonDiverging@UDiagMatr@@@@YAXUDiagMatr@@V?$complex@N@std@@PEBD@Z
	??$assertMatrExpIsNonDiverging@UFullStateDiagMatr@@@@YAXUFullStateDiagMatr@@V?$complex@N@std@@PEBD@Z
	??$assertMatrixDimMatchesTargs@UCompMatr1@@@@YAXUCompMatr1@@HPEBD@Z
	??$assertMatrixDimMatchesTargs@UCompMatr2@@@@YAXUCompMatr2@@HPEBD@Z
	??$assertMatrixDimMatchesTargs@UCompMatr@@@@YAXUCompMatr@@HPEBD@Z
	??$assertMatrixDimMatchesTargs@UDiagMatr1@@@@YAXUDiagMatr1@@HPEBD@Z
	??$assertMatrixDimMatchesTargs@UDiagMatr2@@@@YAXUDiagMatr2@@HPEBD@Z
	??$assertMatrixDimMatchesTargs@UDiagMatr@@@@YAXUDiagMatr@@HPEBD@Z
	??$assertMatrixFieldsAreValid@UCompMatr1@@@@YAXUCompMatr1@@HV?$basic_string@DU?$char_traits@D@std@@V?$allocator@D@2@@std@@PEBD@Z
	??$assertMatrixFieldsAreValid@UCompMatr2@@@@YAXUCompMatr2@@HV?$basic_string@DU?$char_traits@D@std@@V?$allocator@D@2@@std@@PEBD@Z
	??$assertMatrixFieldsAreValid@UCompMatr@@@@YAXUCompMatr@@HV?$basic_string@DU?$char_traits@D@std@@V?$allocator@D@2@@std@@PEBD@Z
	??$assertMatrixFieldsAreValid@UDiagMatr1@@@@YAXUDiagMatr1@@HV?$basic_string@DU?$char_traits@D@std@@V?$allocator@D@2@@std@@PEBD@Z
	??$assertMatrixFieldsAreValid@UDiagMatr2@@@@YAXUDiagMatr2@@HV?$basic_string@DU?$char_traits@D@std@@V?$allocator@D@2@@std@@PEBD@Z
	??$assertMatrixFieldsAreValid@UDiagMatr@@@@YAXUDiagMatr@@HV?$basic_string@DU?$char_traits@D@std@@V?$allocator@D@2@@std@@PEBD@Z
	??$assertMatrixFieldsAreValid@UFullStateDiagMatr@@@@YAXUFullStateDiagMatr@@HV?$basic_string@DU?$char_traits@D@std@@V?$allocator@D@2@@std@@PEBD@Z
	??$assertMatrixIsHermitian@UCompMatr1@@@@YAXUCompMatr1@@PEBD@Z
	??$assertMatrixIsHermitian@UCompMatr2@@@@YAXUCompMatr2@@PEBD@Z
	??$assertMatrixIsHermitian@UCompMatr@@@@YAXUCompMatr@@PEBD@Z
	??$assertMatrixIsHermitian@UDiagMatr1@@@@YAXUDiagMatr1@@PEBD@Z
	??$assertMatrixIsHermitian@UDiagMatr2@@@@YAXUDiagMatr2@@PEBD@Z
	??$assertMatrixIsHermitian@UDiagMatr@@@@YAXUDiagMatr@@PEBD@Z
	??$assertMatrixIsHermitian@UFullStateDiagMatr@@@@YAXUFullStateDiagMatr@@PEBD@Z
	??$assertMatrixIsSynced@UCompMatr@@@@YAXUCompMatr@@V?$basic_string@DU?$char_traits@D@std@@V?$allocator@D@2@@std@@PEBD@Z
	??$assertMatrixIsSynced@UDiagMatr@@@@YAXUDiagMatr@@V?$basic_string@DU?$char_traits@D@std@@V?$allocator@D@2@@std@@PEBD@Z
	??$assertMatrixIsSynced@UFullStateDiagMatr@@@@YAXUFullStateDiagMatr@@V?$basic_string@DU?$char_traits@D@std@@V?$allocator@D@2@@std@@PEBD@Z
	??$assertMatrixIsUnitary@UCompMatr1@@@@YAXUCompMatr1@@PEBD@Z
	??$assertMatrixIsUnitary@UCompMatr2@@@@YAXUCompMatr2@@PEBD@Z
	??$assertMatrixIsUnitary@UCompMatr@@@@YAXUCompMatr@@PEBD@Z
	??$assertMatrixIsUnitary@UDiagMatr1@@@@YAXUDiagMatr1@@PEBD@Z
	??$assertMatrixIsUnitary@UDiagMatr2@@@@YAXUDiagMatr2@@PEBD@Z
	??$assertMatrixIsUnitary@UDiagMatr@@@@YAXUDiagMatr@@PEBD@Z
	??$assertMatrixIsUnitary@UFullStateDiagMatr@@@@YAXUFullStateDiagMatr@@PEBD@Z
	??$assertNewMatrixAllocsSucceeded@UCompMatr@@@@YAXUCompMatr@@_KPEBD@Z
	??$assertNewMatrixAllocsSucceeded@UDiagMatr@@@@YAXUDiagMatr@@_KPEBD@Z
	??$assertNewMatrixAllocsSucceeded@UFullStateDiagMatr@@@@YAXUFullStateDiagMatr@@_KPEBD@Z
	??$cpu_densmatr_allTargDiagMatr_sub@$00$00@@YAXUQureg@@UFullStateDiagMatr@@V?$complex@N@std@@@Z
	??$cpu_densmatr_allTargDiagMatr_sub@$00$0A@@@YAXUQureg@@UFullStateDiagMatr@@V?$complex@N@std@@@Z
	??$cpu_densmatr_allTargDiagMatr_sub@$0A@$00@@YAXUQureg@@UFullStateDiagMatr@@V?$complex@N@std@@@Z
	??$cpu_densmatr_allTargDiagMatr_sub@$0A@$0A@@@YAXUQureg@@UFullStateDiagMatr@@V?$complex@N@std@@@Z
	??$cpu_densmatr_calcExpecFullStateDiagMatr_sub@$00$00@@YA?AV?$complex@N@std@@UQureg@@UFullStateDiagMatr@@V01@@Z
	??$cpu_densmatr_calcExpecFullStateDiagMatr_sub@$00$0A@@@YA?AV?$complex@N@std@@UQureg@@UFullStateDiagMatr@@V01@@Z
	??$cpu_densmatr_calcExpecFullStateDiagMatr_sub@$0A@$00@@YA?AV?$complex@N@std@@UQureg@@UFullStateDiagMatr@@V01@@Z
	??$cpu_densmatr_calcExpecFullStateDiagMatr_sub@$0A@$0A@@@YA?AV?$complex@N@std@@UQureg@@UFullStateDiagMatr@@V01@@Z
	??$cpu_densmatr_calcFidelityWithPureState_sub@$00@@YA?AV?$complex@N@std@@UQureg@@0@Z
	??$cpu_densmatr_calcFidelityWithPureState_sub@$0A@@@YA?AV?$complex@N@std@@UQureg@@0@Z
	??$cpu_densmatr_calcProbOfMultiQubitOutcome_sub@$00@@YANUQureg@@V?$vector@HV?$allocator@H@std@@@std@@1@Z
	??$cpu_densmatr_calcProbOfMultiQubitOutcome_sub@$01@@YANUQureg@@V?$vector@HV?$allocator@H@std@@@std@@1@Z
	??$cpu_densmatr_calcProbOfMultiQubitOutcome_sub@$02@@YANUQureg@@V?$vector@HV?$allocator@H@std@@@std@@1@Z
	??$cpu_densmatr_calcProbOfMultiQubitOutcome_sub@$03@@YANUQureg@@V?$vector@HV?$allocator@H@std@@@std@@1@Z
	??$cpu_densmatr_calcProbOfMultiQubitOutcome_sub@$04@@YANUQureg@@V?$vector@HV?$allocator@H@std@@@std@@1@Z
	??$cpu_densmatr_calcProbOfMultiQubitOutcome_sub@$0?0@@YANUQureg@@V?$vector@HV?$allocator@H@std@@@std@@1@Z
	??$cpu_densmatr_calcProbOfMultiQubitOutcome_sub@$0A@@@YANUQureg@@V?$vector@HV?$allocator@H@std@@@std@@1@Z
	??$cpu_densmatr_calcProbsOfAllMultiQubitOutcomes_sub@$00@@YAXPEANUQureg@@V?$vector@HV?$allocator@H@std@@@std@@@Z
	??$cpu_densmatr_calcProbsOfAllMultiQubitOutcomes_sub@$01@@YAXPEANUQureg@@V?$vector@HV?$allocator@H@std@@@std@@@Z
	??$cpu_densmatr_calcProbsOfAllMultiQubitOutcomes_sub@$02@@YAXPEANUQureg@@V?$vector@HV?$allocator@H@std@@@std@@@Z
	??$cpu_densmatr_calcProbsOfAllMultiQubitOutcomes_sub@$03@@YAXPEANUQureg@@V?$vector@HV?$allocator@H@std@@@std@@@Z
	??$cpu_densmatr_calcProbsOfAllMultiQubitOutcomes_sub@$04@@YAXPEANUQureg@@V?$vector@HV?$allocator@H@std@@@std@@@Z
	??$cpu_densmatr_calcProbsOfAllMultiQubitOutcomes_sub@$0?0@@YAXPEANUQureg@@V?$vector@HV?$allocator@H@std@@@std@@@Z
	??$cpu_densmatr_calcProbsOfAllMultiQubitOutcomes_sub@$0A@@@YAXPEANUQureg@@V?$vector@HV?$allocator@H@std@@@std@@@Z
	??$cpu_densmatr_multiQubitProjector_sub@$00@@YAXUQureg@@V?$vector@HV?$allocator@H@std@@@std@@1N@Z
	??$cpu_densmatr_multiQubitProjector_sub@$01@@YAXUQureg@@V?$vector@HV?$allocator@H@std@@@std@@1N@Z
	??$cpu_densmatr_multiQubitProjector_sub@$02@@YAXUQureg@@V?$vector@HV?$allocator@H@std@@@std@@1N@Z
	??$cpu_densmatr_multiQubitProjector_sub@$03@@YAXUQureg@@V?$vector@HV?$allocator@H@std@@@std@@1N@Z
	??$cpu_densmatr_multiQubitProjector_sub@$04@@YAXUQureg@@V?$vector@HV?$allocator@H@std@@@std@@1N@Z
	??$cpu_densmatr_multiQubitProjector_sub@$0?0@@YAXUQureg@@V?$vector@HV?$allocator@H@std@@@std@@1N@Z
	??$cpu_densmatr_multiQubitProjector_sub@$0A@@@YAXUQureg@@V?$vector@HV?$allocator@H@std@@@std@@1N@Z
	??$cpu_densmatr_partialTrace_sub@$00@@YAXUQureg@@0V?$vector@HV?$allocator@H@std@@@std@@1@Z
	??$cpu_densmatr_partialTrace_sub@$01@@YAXUQureg@@0V?$vector@HV?$allocator@H@std@@@std@@1@Z
	??$cpu_densmatr_partialTrace_sub@$02@@YAXUQureg@@0V?$vector@HV?$allocator@H@std@@@std@@1@Z
	??$cpu_densmatr_partialTrace_sub@$03@@YAXUQureg@@0V?$vector@HV?$allocator@H@std@@@std@@1@Z
	??$cpu_densmatr_partialTrace_sub@$04@@YAXUQureg@@0V?$vector@HV?$allocator@H@std@@@std@@1@Z
	??$cpu_densmatr_partialTrace_sub@$0?0@@YAXUQureg@@0V?$vector@HV?$allocator@H@std@@@std@@1@Z
	??$cpu_densmatr_partialTrace_sub@$0A@@@YAXUQureg@@0V?$vector@HV?$allocator@H@std@@@std@@1@Z
	??$cpu_statevec_allTargDiagMatr_sub@$00@@YAXUQureg@@UFullStateDiagMatr@@V?$complex@N@std@@@Z
	??$cpu_statevec_allTargDiagMatr_sub@$0A@@@YAXUQureg@@UFullStateDiagMatr@@V?$complex@N@std@@@Z
	??$cpu_statevec_anyCtrlAnyTargDenseMatr_sub@$00$00$00@@YAXUQureg@@V?$vector@HV?$allocator@H@std@@@std@@11UCompMatr@@@Z
	??$cpu_statevec_anyCtrlAnyTargDenseMatr_sub@$00$00$0A@@@YAXUQureg@@V?$vector@HV?$allocator@H@std@@@std@@11UCompMatr@@@Z
	??$cpu_statevec_anyCtrlAnyTargDenseMatr_sub@$00$01$00@@YAXUQureg@@V?$vector@HV?$allocator@H@std@@@std@@11UCompMatr@@@Z
	??$cpu_statevec_anyCtrlAnyTargDenseMatr_sub@$00$01$0A@@@YAXUQureg@@V?$vector@HV?$allocator@H@std@@@std@@11UCompMatr@@@Z
	??$cpu_statevec_anyCtrlAnyTargDenseMatr_sub@$00$02$00@@YAXUQureg@@V?$vector@HV?$allocator@H@std@@@std@@11UCompMatr@@@Z
	??$cpu_statevec_anyCtrlAnyTargDenseMatr_sub@$00$02$0A@@@YAXUQureg@@V?$vector@HV?$allocator@H@std@@@std@@11UCompMatr@@@Z
	??$cpu_statevec_anyCtrlAnyTargDenseMatr_sub@$00$03$00@@YAXUQureg@@V?$vector@HV?$allocator@H@std@@@std@@11UCompMatr@@@Z
	??$cpu_statevec_anyCtrlAnyTargDenseMatr_sub@$00$03$0A@@@YAXUQureg@@V?$vector@HV?$allocator@H@std@@@std@@11UCompMatr@@@Z
	??$cpu_statevec_anyCtrlAnyTargDenseMatr_sub@$00$04$00@@YAXUQureg@@V?$vector@HV?$allocator@H@std@@@std@@11UCompMatr@@@Z
	??$cpu_statevec_anyCtrlAnyTargDenseMatr_sub@$00$04$0A@@@YAXUQureg@@V?$vector@HV?$allocator@H@std@@@std@@11UCompMatr@@@Z
	??$cpu_statevec_anyCtrlAnyTargDenseMatr_sub@$00$0?0$00@@YAXUQureg@@V?$vector@HV?$allocator@H@std@@@std@@11UCompMatr@@@Z
	??$cpu_statevec_anyCtrlAnyTargDenseMatr_sub@$00$0?0$0A@@@YAXUQureg@@V?$vector@HV?$allocator@H@std@@@std@@11UCompMatr@@@Z
	??$cpu_statevec_anyCtrlAnyTargDenseMatr_sub@$00$0A@$00@@YAXUQureg@@V?$vector@HV?$allocator@H@std@@@std@@11UCompMatr@@@Z
	??$cpu_statevec_anyCtrlAnyTargDenseMatr_sub@$00$0A@$0A@@@YAXUQureg@@V?$vector@HV?$allocator@H@std@@@std@@11UCompMatr@@@Z
	??$cpu_statevec_anyCtrlAnyTargDenseMatr_sub@$01$00$00@@YAXUQureg@@V?$vector@HV?$allocator@H@std@@@std@@11UCompMatr@@@Z
	??$cpu_statevec_anyCtrlAnyTargDenseMatr_sub@$01$00$0A@@@YAXUQureg@@V?$vector@HV?$allocator@H@std@@@std@@11UCompMatr@@@Z
	??$cpu_statevec_anyCtrlAnyTargDenseMatr_sub@$01$01$00@@YAXUQureg@@V?$vector@HV?$allocator@H@std@@@std@@11UCompMatr@@@Z
	??$cpu_statevec_anyCtrlAnyTargDenseMatr_sub@$01$01$0A@@@YAXUQureg@@V?$vector@HV?$allocator@H@std@@@std@@11UCompMatr@@@Z
	??$cpu_statevec_anyCtrlAnyTargDenseMatr_sub@$01$02$00@@YAXUQureg@@V?$vector@HV?$allocator@H@std@@@std@@11UCompMatr@@@Z
	??$cpu_statevec_anyCtrlAnyTargDenseMatr_sub@$01$02$0A@@@YAXUQureg@@V?$vector@HV?$allocator@H@std@@@std@@11UCompMatr@@@Z
	??$cpu_statevec_anyCtrlAnyTargDenseMatr_sub@$01$03$00@@YAXUQureg@@V?$vector@HV?$allocator@H@std@@@std@@11UCompMatr@@@Z
	??$cpu_statevec_anyCtrlAnyTargDenseMatr_sub@$01$03$0A@@@YAXUQureg@@V?$vector@HV?$allocator@H@std@@@std@@11UCompMatr@@@Z
	??$cpu_statevec_anyCtrlAnyTargDenseMatr_sub@$01$04$00@@YAXUQureg@@V?$vector@HV?$allocator@H@std@@@std@@11UCompMatr@@@Z
	??$cpu_statevec_anyCtrlAnyTargDenseMatr_sub@$01$04$0A@@@YAXUQureg@@V?$vector@HV?$allocator@H@std@@@std@@11UCompMatr@@@Z
	??$cpu_statevec_anyCtrlAnyTargDenseMatr_sub@$01$0?0$00@@YAXUQureg@@V?$vector@HV?$allocator@H@std@@@std@@11UCompMatr@@@Z
	??$cpu_statevec_anyCtrlAnyTargDenseMatr_sub@$01$0?0$0A@@@YAXUQureg@@V?$vector@HV?$allocator@H@std@@@std@@11UCompMatr@@@Z
	??$cpu_statevec_anyCtrlAnyTargDenseMatr_sub@$01$0A@$00@@YAXUQureg@@V?$vector@HV?$allocator@H@std@@@std@@11UCompMatr@@@Z
	??$cpu_statevec_anyCtrlAnyTargDenseMatr_sub@$01$0A@$0A@@@YAXUQureg@@V?$vector@HV?$allocator@H@std@@@std@@11UCompMatr@@@Z
	??$cpu_statevec_anyCtrlAnyTargDenseMatr_sub@$02$00$00@@YAXUQureg@@V?$vector@HV?$allocator@H@std@@@std@@11UCompMatr@@@Z
	??$cpu_statevec_anyCtrlAnyTargDenseMatr_sub@$02$00$0A@@@YAXUQureg@@V?$vector@HV?$allocator@H@std@@@std@@11UCompMatr@@@Z
	??$cpu_statevec_anyCtrlAnyTargDenseMatr_sub@$02$01$00@@YAXUQureg@@V?$vector@HV?$allocator@H@std@@@std@@11UCompMatr@@@Z
	??$cpu_statevec_anyCtrlAnyTargDenseMatr_sub@$02$01$0A@@@YAXUQureg@@V?$vector@HV?$allocator@H@std@@@std@@11UCompMatr@@@Z
	??$cpu_statevec_anyCtrlAnyTargDenseMatr_sub@$02$02$00@@YAXUQureg@@V?$vector@HV?$allocator@H@std@@@std@@11UCompMatr@@@Z
	??$cpu_statevec_anyCtrlAnyTargDenseMatr_sub@$02$02$0A@@@YAXUQureg@@V?$vector@HV?$allocator@H@std@@@std@@11UCompMatr@@@Z
	??$cpu_statevec_anyCtrlAnyTargDenseMatr_sub@$02$03$00@@YAXUQureg@@V?$vector@HV?$allocator@H@std@@@std@@11UCompMatr@@@Z
	??$cpu_statevec_anyCtrlAnyTargDenseMatr_sub@$02$03$0A@@@YAXUQureg@@V?$vector@HV?$allocator@H@std@@@std@@11UCompMatr@@@Z
	??$cpu_statevec_anyCtrlAnyTargDenseMatr_sub@$02$04$00@@YAXUQureg@@V?$vector@HV?$allocator@H@std@@@std@@11UCompMatr@@@Z
	??$cpu_statevec_anyCtrlAnyTargDenseMatr_sub@$02$04$0A@@@YAXUQureg@@V?$vector@HV?$allocator@H@std@@@std@@11UCompMatr@@@Z
	??$cpu_statevec_anyCtrlAnyTargDenseMatr_sub@$02$0?0$00@@YAXUQureg@@V?$vector@HV?$allocator@H@std@@@std@@11UCompMatr@@@Z
	??$cpu_statevec_anyCtrlAnyTargDenseMatr_sub@$02$0?0$0A@@@YAXUQureg@@V?$vector@HV?$allocator@H@std@@@std@@11UCompMatr@@@Z
	??$cpu_statevec_anyCtrlAnyTargDenseMatr_sub@$02$0A@$00@@YAXUQureg@@V?$vector@HV?$allocator@H@std@@@std@@11UCompMatr@@@Z
	??$cpu_statevec_anyCtrlAnyTargDenseMatr_sub@$02$0A@$0A@@@YAXUQureg@@V?$vector@HV?$allocator@H@std@@@std@@11UCompMatr@@@Z
	??$cpu_statevec_anyCtrlAnyTargDenseMatr_sub@$03$00$00@@YAXUQureg@@V?$vector@HV?$allocator@H@std@@@std@@11UCompMatr@@@Z
	??$cpu_statevec_anyCtrlAnyTargDenseMatr_sub@$03$00$0A@@@YAXUQureg@@V?$vector@HV?$allocator@H@std@@@std@@11UCompMatr@@@Z
	??$cpu_statevec_anyCtrlAnyTargDenseMatr_sub@$03$01$00@@YAXUQureg@@V?$vector@HV?$allocator@H@std@@@std@@11UCompMatr@@@Z
	??$cpu_statevec_anyCtrlAnyTargDenseMatr_sub@$03$01$0A@@@YAXUQureg@@V?$vector@HV?$allocator@H@std@@@std@@11UCompMatr@@@Z
	??$cpu_statevec_anyCtrlAnyTargDenseMatr_sub@$03$02$00@@YAXUQureg@@V?$vector@HV?$allocator@H@std@@@std@@11UCompMatr@@@Z
	??$cpu_statevec_anyCtrlAnyTargDenseMatr_sub@$03$02$0A@@@YAXUQureg@@V?$vector@HV?$allocator@H@std@@@std@@11UCompMatr@@@Z
	??$cpu_statevec_anyCtrlAnyTargDenseMatr_sub@$03$03$00@@YAXUQureg@@V?$vector@HV?$allocator@H@std@@@std@@11UCompMatr@@@Z
	??$cpu_statevec_anyCtrlAnyTargDenseMatr_sub@$03$03$0A@@@YAXUQureg@@V?$vector@HV?$allocator@H@std@@@std@@11UCompMatr@@@Z
	??$cpu_statevec_anyCtrlAnyTargDenseMatr_sub@$03$04$00@@YAXUQureg@@V?$vector@HV?$allocator@H@std@@@std@@11UCompMatr@@@Z
	??$cpu_statevec_anyCtrlAnyTargDenseMatr_sub@$03$04$0A@@@YAXUQureg@@V?$vector@HV?$allocator@H@std@@@std@@11UCompMatr@@@Z
	??$cpu_statevec_anyCtrlAnyTargDenseMatr_sub@$03$0?0$00@@YAXUQureg@@V?$vector@HV?$allocator@H@std@@@std@@11UCompMatr@@@Z
	??$cpu_statevec_anyCtrlAnyTargDenseMatr_sub@$03$0?0$0A@@@YAXUQureg@@V?$vector@HV?$allocator@H@std@@@std@@11UCompMatr@@@Z
	??$cpu_statevec_anyCtrlAnyTargDenseMatr_sub@$03$0A@$00@@YAXUQureg@@V?$vector@HV?$allocator@H@std@@@std@@11UCompMatr@@@Z
	??$cpu_statevec_anyCtrlAnyTargDenseMatr_sub@$03$0A@$0A@@@YAXUQureg@@V?$vector@HV?$allocator@H@std@@@std@@11UCompMatr@@@Z
	??$cpu_statevec_anyCtrlAnyTargDenseMatr_sub@$04$00$00@@YAXUQureg@@V?$vector@HV?$allocator@H@std@@@std@@11UCompMatr@@@Z
	??$cpu_statevec_anyCtrlAnyTargDenseMatr_sub@$04$00$0A@@@YAXUQureg@@V?$vector@HV?$allocator@H@std@@@std@@11UCompMatr@@@Z
	??$cpu_statevec_anyCtrlAnyTargDenseMatr_sub@$04$01$00@@YAXUQureg@@V?$vector@HV?$allocator@H@std@@@std@@11UCompMatr@@@Z
	??$cpu_statevec_anyCtrlAnyTargDenseMatr_sub@$04$01$0A@@@YAXUQureg@@V?$vector@HV?$allocator@H@std@@@std@@11UCompMatr@@@Z
	??$cpu_statevec_anyCtrlAnyTargDenseMatr_sub@$04$02$00@@YAXUQureg@@V?$vector@HV?$allocator@H@std@@@std@@11UCompMatr@@@Z
	??$cpu_statevec_anyCtrlAnyTargDenseMatr_sub@$04$02$0A@@@YAXUQureg@@V?$vector@HV?$allocator@H@std@@@std@@11UCompMatr@@@Z
	??$cpu_statevec_anyCtrlAnyTargDenseMatr_sub@$04$03$00@@YAXUQureg@@V?$vector@HV?$allocator@H@std@@@std@@11UCompMatr@@@Z
	??$cpu_statevec_anyCtrlAnyTargDenseMatr_sub@$04$03$0A@@@YAXUQureg@@V?$vector@HV?$allocator@H@std@@@std@@11UCompMatr@@@Z
	??$cpu_statevec_anyCtrlAnyTargDenseMatr_sub@$04$04$00@@YAXUQureg@@V?$vector@HV?$allocator@H@std@@@std@@11UCompMatr@@@Z
	??$cpu_statevec_anyCtrlAnyTargDenseMatr_sub@$04$04$0A@@@YAXUQureg@@V?$vector@HV?$allocator@H@std@@@std@@11UCompMatr@@@Z
	??$cpu_statevec_anyCtrlAnyTargDenseMatr_sub@$04$0?0$00@@YAXUQureg@@V?$vector@HV?$allocator@H@std@@@std@@11UCompMatr@@@Z
	??$cpu_statevec_anyCtrlAnyTargDenseMatr_sub@$04$0?0$0A@@@YAXUQureg@@V?$vector@HV?$allocator@H@std@@@std@@11UCompMatr@@@Z
	??$cpu_statevec_anyCtrlAnyTargDenseMatr_sub@$04$0A@$00@@YAXUQureg@@V?$vector@HV?$allocator@H@std@@@std@@11UCompMatr@@@Z
	??$cpu_statevec_anyCtrlAnyTargDenseMatr_sub@$04$0A@$0A@@@YAXUQureg@@V?$vector@HV?$allocator@H@std@@@std@@11UCompMatr@@@Z
	??$cpu_statevec_anyCtrlAnyTargDenseMatr_sub@$0?0$00$00@@YAXUQureg@@V?$vector@HV?$allocator@H@std@@@std@@11UCompMatr@@@Z
	??$cpu_statevec_anyCtrlAnyTargDenseMatr_sub@$0?0$00$0A@@@YAXUQureg@@V?$vector@HV?$allocator@H@std@@@std@@11UCompMatr@@@Z
	??$cpu_statevec_anyCtrlAnyTargDenseMatr_sub@$0?0$01$00@@YAXUQureg@@V?$vector@HV?$allocator@H@std@@@std@@11UCompMatr@@@Z
	??$cpu_statevec_anyCtrlAnyTargDenseMatr_sub@$0?0$01$0A@@@YAXUQureg@@V?$vector@HV?$allocator@H@std@@@std@@11UCompMatr@@@Z
	??$cpu_statevec_anyCtrlAnyTargDenseMatr_sub@$0?0$02$00@@YAXUQureg@@V?$vector@HV?$allocator@H@std@@@std@@11UCompMatr@@@Z
	??$cpu_statevec_anyCtrlAnyTargDenseMatr_sub@$0?0$02$0A@@@YAXUQureg@@V?$vector@HV?$allocator@H@std@@@std@@11UCompMatr@@@Z
	??$cpu_statevec_anyCtrlAnyTargDenseMatr_sub@$0?0$03$00@@YAXUQureg@@V?$vector@HV?$allocator@H@std@@@std@@11UCompMatr@@@Z
	??$cpu_statevec_anyCtrlAnyTargDenseMatr_sub@$0?0$03$0A@@@YAXUQureg@@V?$vector@HV?$allocator@H@std@@@std@@11UCompMatr@@@Z
	??$cpu_statevec_anyCtrlAnyTargDenseMatr_sub@$0?0$04$00@@YAXUQureg@@V?$vector@HV?$allocator@H@std@@@std@@11UCompMatr@@@Z
	??$cpu_statevec_anyCtrlAnyTargDenseMatr_sub@$0?0$04$0A@@@YAXUQureg@@V?$vector@HV?$allocator@H@std@@@std@@11UCompMatr@@@Z
	??$cpu_statevec_anyCtrlAnyTargDenseMatr_sub@$0?0$0?0$00@@YAXUQureg@@V?$vector@HV?$allocator@H@std@@@std@@11UCompMatr@@@Z
	??$cpu_statevec_anyCtrlAnyTargDenseMatr_sub@$0?0$0?0$0A@@@YAXUQureg@@V?$vector@HV?$allocator@H@std@@@std@@11UCompMatr@@@Z
	??$cpu_statevec_anyCtrlAnyTargDenseMatr_sub@$0?0$0A@$00@@YAXUQureg@@V?$vector@HV?$allocator@H@std@@@std@@11UCompMatr@@@Z
	??$cpu_statevec_anyCtrlAnyTargDenseMatr_sub@$0?0$0A@$0A@@@YAXUQureg@@V?$vector@HV?$allocator@H@std@@@std@@11UCompMatr@@@Z
	??$cpu_statevec_anyCtrlAnyTargDenseMatr_sub@$0A@$00$00@@YAXUQureg@@V?$vector@HV?$allocator@H@std@@@std@@11UCompMatr@@@Z
	??$cpu_statevec_anyCtrlAnyTargDenseMatr_sub@$0A@$00$0A@@@YAXUQureg@@V?$vector@HV?$allocator@H@std@@@std@@11UCompMatr@@@Z
	??$cpu_statevec_anyCtrlAnyTargDenseMatr_sub@$0A@$01$00@@YAXUQureg@@V?$vector@HV?$allocator@H@std@@@std@@11UCompMatr@@@Z
	??$cpu_statevec_anyCtrlAnyTargDenseMatr_sub@$0A@$01$0A@@@YAXUQureg@@V?$vector@HV?$allocator@H@std@@@std@@11UCompMatr@@@Z
	??$cpu_statevec_anyCtrlAnyTargDenseMatr_sub@$0A@$02$00@@YAXUQureg@@V?$vector@HV?$allocator@H@std@@@std@@11UCompMatr@@@Z
	??$cpu_statevec_anyCtrlAnyTargDenseMatr_sub@$0A@$02$0A@@@YAXUQureg@@V?$vector@HV?$allocator@H@std@@@std@@11UCompMatr@@@Z
	??$cpu_statevec_anyCtrlAnyTargDenseMatr_sub@$0A@$03$00@@YAXUQureg@@V?$vector@HV?$allocator@H@std@@@std@@11UCompMatr@@@Z
	??$cpu_statevec_anyCtrlAnyTargDenseMatr_sub@$0A@$03$0A@@@YAXUQureg@@V?$vector@HV?$allocator@H@std@@@std@@11UCompMatr@@@Z
	??$cpu_statevec_anyCtrlAnyTargDenseMatr_sub@$0A@$04$00@@YAXUQureg@@V?$vector@HV?$allocator@H@std@@@std@@11UCompMatr@@@Z
	??$cpu_statevec_anyCtrlAnyTargDenseMatr_sub@$0A@$04$0A@@@YAXUQureg@@V?$vector@HV?$allocator@H@std@@@std@@11UCompMatr@@@Z
	??$cpu_statevec_anyCtrlAnyTargDenseMatr_sub@$0A@$0?0$00@@YAXUQureg@@V?$vector@HV?$allocator@H@std@@@std@@11UCompMatr@@@Z
	??$cpu_statevec_anyCtrlAnyTargDenseMatr_sub@$0A@$0?0$0A@@@YAXUQureg@@V?$vector@HV?$allocator@H@std@@@std@@11UCompMatr@@@Z
	??$cpu_statevec_anyCtrlAnyTargDenseMatr_sub@$0A@$0A@$00@@YAXUQureg@@V?$vector@HV?$allocator@H@std@@@std@@11UCompMatr@@@Z
	??$cpu_statevec_anyCtrlAnyTargDenseMatr_sub@$0A@$0A@$0A@@@YAXUQureg@@V?$vector@HV?$allocator@H@std@@@std@@11UCompMatr@@@Z
	??$cpu_statevec_anyCtrlAnyTargDiagMatr_sub@$00$00$00$00@@YAXUQureg@@V?$vector@HV?$allocator@H@std@@@std@@11UDiagMatr@@V?$complex@N@2@@Z
	??$cpu_statevec_anyCtrlAnyTargDiagMatr_sub@$00$00$00$0A@@@YAXUQureg@@V?$vector@HV?$allocator@H@std@@@std@@11UDiagMatr@@V?$complex@N@2@@Z
	??$cpu_statevec_anyCtrlAnyTargDiagMatr_sub@$00$00$0A@$00@@YAXUQureg@@V?$vector@HV?$allocator@H@std@@@std@@11UDiagMatr@@V?$complex@N@2@@Z
	??$cpu_statevec_anyCtrlAnyTargDiagMatr_sub@$00$00$0A@$0A@@@YAXUQureg@@V?$vector@HV?$allocator@H@std@@@std@@11UDiagMatr@@V?$complex@N@2@@Z
	??$cpu_statevec_anyCtrlAnyTargDiagMatr_sub@$00$01$00$00@@YAXUQureg@@V?$vector@HV?$allocator@H@std@@@std@@11UDiagMatr@@V?$complex@N@2@@Z
	??$cpu_statevec_anyCtrlAnyTargDiagMatr_sub@$00$01$00$0A@@@YAXUQureg@@V?$vector@HV?$allocator@H@std@@@std@@11UDiagMatr@@V?$complex@N@2@@Z
	??$cpu_statevec_anyCtrlAnyTargDiagMatr_sub@$00$01$0A@$00@@YAXUQureg@@V?$vector@HV?$allocator@H@std@@@std@@11UDiagMatr@@V?$complex@N@2@@Z
	??$cpu_statevec_anyCtrlAnyTargDiagMatr_sub@$00$01$0A@$0A@@@YAXUQureg@@V?$vector@HV?$allocator@H@std@@@std@@11UDiagMatr@@V?$complex@N@2@@Z
	??$cpu_statevec_anyCtrlAnyTargDiagMatr_sub@$00$02$00$00@@YAXUQureg@@V?$vector@HV?$allocator@H@std@@@std@@11UDiagMatr@@V?$complex@N@2@@Z
	??$cpu_statevec_anyCtrlAnyTargDiagMatr_sub@$00$02$00$0A@@@YAXUQureg@@V?$vector@HV?$allocator@H@std@@@std@@11UDiagMatr@@V?$complex@N@2@@Z
	??$cpu_statevec_anyCtrlAnyTargDiagMatr_sub@$00$02$0A@$00@@YAXUQureg@@V?$vector@HV?$allocator@H@std@@@std@@11UDiagMatr@@V?$complex@N@2@@Z
	??$cpu_statevec_anyCtrlAnyTargDiagMatr_sub@$00$02$0A@$0A@@@YAXUQureg@@V?$vector@HV?$allocator@H@std@@@std@@11UDiagMatr@@V?$complex@N@2@@Z
	??$cpu_statevec_anyCtrlAnyTargDiagMatr_sub@$00$03$00$00@@YAXUQureg@@V?$vector@HV?$allocator@H@std@@@std@@11UDiagMatr@@V?$complex@N@2@@Z
	??$cpu_statevec_anyCtrlAnyTargDiagMatr_sub@$00$03$00$0A@@@YAXUQureg@@V?$vector@HV?$allocator@H@std@@@std@@11UDiagMatr@@V?$complex@N@2@@Z
	??$cpu_statevec_anyCtrlAnyTargDiagMatr_sub@$00$03$0A@$00@@YAXUQureg@@V?$vector@HV?$allocator@H@std@@@std@@11UDiagMatr@@V?$complex@N@2@@Z
	??$cpu_statevec_anyCtrlAnyTargDiagMatr_sub@$00$03$0A@$0A@@@YAXUQureg@@V?$vector@HV?$allocator@H@std@@@std@@11UDiagMatr@@V?$complex@N@2@@Z
	??$cpu_statevec_anyCtrlAnyTargDiagMatr_sub@$00$04$00$00@@YAXUQureg@@V?$vector@HV?$allocator@H@std@@@std@@11UDiagMatr@@V?$complex@N@2@@Z
	??$cpu_statevec_anyCtrlAnyTargDiagMatr_sub@$00$04$00$0A@@@YAXUQureg@@V?$vector@HV?$allocator@H@std@@@std@@11UDiagMatr@@V?$complex@N@2@@Z
	??$cpu_statevec_anyCtrlAnyTargDiagMatr_sub@$00$04$0A@$00@@YAXUQureg@@V?$vector@HV?$allocator@H@std@@@std@@11UDiagMatr@@V?$complex@N@2@@Z
	??$cpu_statevec_anyCtrlAnyTargDiagMatr_sub@$00$04$0A@$0A@@@YAXUQureg@@V?$vector@HV?$allocator@H@std@@@std@@11UDiagMatr@@V?$complex@N@2@@Z
	??$cpu_statevec_anyCtrlAnyTargDiagMatr_sub@$00$0?0$00$00@@YAXUQureg@@V?$vector@HV?$allocator@H@std@@@std@@11UDiagMatr@@V?$complex@N@2@@Z
	??$cpu_statevec_anyCtrlAnyTargDiagMatr_sub@$00$0?0$00$0A@@@YAXUQureg@@V?$vector@HV?$allocator@H@std@@@std@@11UDiagMatr@@V?$complex@N@2@@Z
	??$cpu_statevec_anyCtrlAnyTargDiagMatr_sub@$00$0?0$0A@$00@@YAXUQureg@@V?$vector@HV?$allocator@H@std@@@std@@11UDiagMatr@@V?$complex@N@2@@Z
	??$cpu_statevec_anyCtrlAnyTargDiagMatr_sub@$00$0?0$0A@$0A@@@YAXUQureg@@V?$vector@HV?$allocator@H@std@@@std@@11UDiagMatr@@V?$complex@N@2@@Z
	??$cpu_statevec_anyCtrlAnyTargDiagMatr_sub@$00$0A@$00$00@@YAXUQureg@@V?$vector@HV?$allocator@H@std@@@std@@11UDiagMatr@@V?$complex@N@2@@Z
	??$cpu_statevec_anyCtrlAnyTargDiagMatr_sub@$00$0A@$00$0A@@@YAXUQureg@@V?$vector@HV?$allocator@H@std@@@std@@11UDiagMatr@@V?$complex@N@2@@Z
	??$cpu_statevec_anyCtrlAnyTargDiagMatr_sub@$00$0A@$0A@$00@@YAXUQureg@@V?$vector@HV?$allocator@H@std@@@std@@11UDiagMatr@@V?$complex@N@2@@Z
	??$cpu_statevec_anyCtrlAnyTargDiagMatr_sub@$00$0A@$0A@$0A@@@YAXUQureg@@V?$vector@HV?$allocator@H@std@@@std@@11UDiagMatr@@V?$complex@N@2@@Z
	??$cpu_statevec_anyCtrlAnyTargDiagMatr_sub@$01$00$00$00@@YAXUQureg@@V?$vector@HV?$allocator@H@std@@@std@@11UDiagMatr@@V?$complex@N@2@@Z
	??$cpu_statevec_anyCtrlAnyTargDiagMatr_sub@$01$00$00$0A@@@YAXUQureg@@V?$vector@HV?$allocator@H@std@@@std@@11UDiagMatr@@V?$complex@N@2@@Z
	??$cpu_statevec_anyCtrlAnyTargDiagMatr_sub@$01$00$0A@$00@@YAXUQureg@@V?$vector@HV?$allocator@H@std@@@std@@11UDiagMatr@@V?$complex@N@2@@Z
	??$cpu_statevec_anyCtrlAnyTargDiagMatr_sub@$01$00$0A@$0A@@@YAXUQureg@@V?$vector@HV?$allocator@H@std@@@std@@11UDiagMatr@@V?$complex@N@2@@Z
	??$cpu_statevec_anyCtrlAnyTargDiagMatr_sub@$01$01$00$00@@YAXUQureg@@V?$vector@HV?$allocator@H@std@@@std@@11UDiagMatr@@V?$complex@N@2@@Z
	??$cpu_statevec_anyCtrlAnyTargDiagMatr_sub@$01$01$00$0A@@@YAXUQureg@@V?$vector@HV?$allocator@H@std@@@std@@11UDiagMatr@@V?$complex@N@2@@Z
	??$cpu_statevec_anyCtrlAnyTargDiagMatr_sub@$01$01$0A@$00@@YAXUQureg@@V?$vector@HV?$allocator@H@std@@@std@@11UDiagMatr@@V?$complex@N@2@@Z
	??$cpu_statevec_anyCtrlAnyTargDiagMatr_sub@$01$01$0A@$0A@@@YAXUQureg@@V?$vector@HV?$allocator@H@std@@@std@@11UDiagMatr@@V?$complex@N@2@@Z
	??$cpu_statevec_anyCtrlAnyTargDiagMatr_sub@$01$02$00$00@@YAXUQureg@@V?$vector@HV?$allocator@H@std@@@std@@11UDiagMatr@@V?$complex@N@2@@Z
	??$cpu_statevec_anyCtrlAnyTargDiagMatr_sub@$01$02$00$0A@@@YAXUQureg@@V?$vector@HV?$allocator@H@std@@@std@@11UDiagMatr@@V?$complex@N@2@@Z
	??$cpu_statevec_anyCtrlAnyTargDiagMatr_sub@$01$02$0A@$00@@YAXUQureg@@V?$vector@HV?$allocator@H@std@@@std@@11UDiagMatr@@V?$complex@N@2@@Z
	??$cpu_statevec_anyCtrlAnyTargDiagMatr_sub@$01$02$0A@$0A@@@YAXUQureg@@V?$vector@HV?$allocator@H@std@@@std@@11UDiagMatr@@V?$complex@N@2@@Z
	??$cpu_statevec_anyCtrlAnyTargDiagMatr_sub@$01$03$00$00@@YAXUQureg@@V?$vector@HV?$allocator@H@std@@@std@@11UDiagMatr@@V?$complex@N@2@@Z
	??$cpu_statevec_anyCtrlAnyTargDiagMatr_sub@$01$03$00$0A@@@YAXUQureg@@V?$vector@HV?$allocator@H@std@@@std@@11UDiagMatr@@V?$complex@N@2@@Z
	??$cpu_statevec_anyCtrlAnyTargDiagMatr_sub@$01$03$0A@$00@@YAXUQureg@@V?$vector@HV?$allocator@H@std@@@std@@11UDiagMatr@@V?$complex@N@2@@Z
	??$cpu_statevec_anyCtrlAnyTargDiagMatr_sub@$01$03$0A@$0A@@@YAXUQureg@@V?$vector@HV?$allocator@H@std@@@std@@11UDiagMatr@@V?$complex@N@2@@Z
	??$cpu_statevec_anyCtrlAnyTargDiagMatr_sub@$01$04$00$00@@YAXUQureg@@V?$vector@HV?$allocator@H@std@@@std@@11UDiagMatr@@V?$complex@N@2@@Z
	??$cpu_statevec_anyCtrlAnyTargDiagMatr_sub@$01$04$00$0A@@@YAXUQureg@@V?$vector@HV?$allocator@H@std@@@std@@11UDiagMatr@@V?$complex@N@2@@Z
	??$cpu_statevec_anyCtrlAnyTargDiagMatr_sub@$01$04$0A@$00@@YAXUQureg@@V?$vector@HV?$allocator@H@std@@@std@@11UDiagMatr@@V?$complex@N@2@@Z
	??$cpu_statevec_anyCtrlAnyTargDiagMatr_sub@$01$04$0A@$0A@@@YAXUQureg@@V?$vector@HV?$allocator@H@std@@@std@@11UDiagMatr@@V?$complex@N@2@@Z
	??$cpu_statevec_anyCtrlAnyTargDiagMatr_sub@$01$0?0$00$00@@YAXUQureg@@V?$vector@HV?$allocator@H@std@@@std@@11UDiagMatr@@V?$complex@N@2@@Z
	??$cpu_statevec_anyCtrlAnyTargDiagMatr_sub@$01$0?0$00$0A@@@YAXUQureg@@V?$vector@HV?$allocator@H@std@@@std@@11UDiagMatr@@V?$complex@N@2@@Z
	??$cpu_statevec_anyCtrlAnyTargDiagMatr_sub@$01$0?0$0A@$00@@YAXUQureg@@V?$vector@HV?$allocator@H@std@@@std@@11UDiagMatr@@V?$complex@N@2@@Z
	??$cpu_statevec_anyCtrlAnyTargDiagMatr_sub@$01$0?0$0A@$0A@@@YAXUQureg@@V?$vector@HV?$allocator@H@std@@@std@@11UDiagMatr@@V?$complex@N@2@@Z
	??$cpu_statevec_anyCtrlAnyTargDiagMatr_sub@$01$0A@$00$00@@YAXUQureg@@V?$vector@HV?$allocator@H@std@@@std@@11UDiagMatr@@V?$complex@N@2@@Z
	??$cpu_statevec_anyCtrlAnyTargDiagMatr_sub@$01$0A@$00$0A@@@YAXUQureg@@V?$vector@HV?$allocator@H@std@@@std@@11UDiagMatr@@V?$complex@N@2@@Z
	??$cpu_statevec_anyCtrlAnyTargDiagMatr_sub@$01$0A@$0A@$00@@YAXUQureg@@V?$vector@HV?$allocator@H@std@@@std@@11UDiagMatr@@V?$complex@N@2@@Z
	??$cpu_statevec_anyCtrlAnyTargDiagMatr_sub@$01$0A@$0A@$0A@@@YAXUQureg@@V?$vector@HV?$allocator@H@std@@@std@@11UDiagMatr@@V?$complex@N@2@@Z
	??$cpu_statevec_anyCtrlAnyTargDiagMatr_sub@$02$00$00$00@@YAXUQureg@@V?$vector@HV?$allocator@H@std@@@std@@11UDiagMatr@@V?$complex@N@2@@Z
	??$cpu_statevec_anyCtrlAnyTargDiagMatr_sub@$02$00$00$0A@@@YAXUQureg@@V?$vector@HV?$allocator@H@std@@@std@@11UDiagMatr@@V?$complex@N@2@@Z
	??$cpu_statevec_anyCtrlAnyTargDiagMatr_sub@$02$00$0A@$00@@YAXUQureg@@V?$vector@HV?$allocator@H@std@@@std@@11UDiagMatr@@V?$complex@N@2@@Z
	??$cpu_statevec_anyCtrlAnyTargDiagMatr_sub@$02$00$0A@$0A@@@YAXUQureg@@V?$vector@HV?$allocator@H@std@@@std@@11UDiagMatr@@V?$complex@N@2@@Z
	??$cpu_statevec_anyCtrlAnyTargDiagMatr_sub@$02$01$00$00@@YAXUQureg@@V?$vector@HV?$allocator@H@std@@@std@@11UDiagMatr@@V?$complex@N@2@@Z
	??$cpu_statevec_anyCtrlAnyTargDiagMatr_sub@$02$01$00$0A@@@YAXUQureg@@V?$vector@HV?$allocator@H@std@@@std@@11UDiagMatr@@V?$complex@N@2@@Z
	??$cpu_statevec_anyCtrlAnyTargDiagMatr_sub@$02$01$0A@$00@@YAXUQureg@@V?$vector@HV?$allocator@H@std@@@std@@11UDiagMatr@@V?$complex@N@2@@Z
	??$cpu_statevec_anyCtrlAnyTargDiagMatr_sub@$02$01$0A@$0A@@@YAXUQureg@@V?$vector@HV?$allocator@H@std@@@std@@11UDiagMatr@@V?$complex@N@2@@Z
	??$cpu_statevec_anyCtrlAnyTargDiagMatr_sub@$02$02$00$00@@YAXUQureg@@V?$vector@HV?$allocator@H@std@@@std@@11UDiagMatr@@V?$complex@N@2@@Z
	??$cpu_statevec_anyCtrlAnyTargDiagMatr_sub@$02$02$00$0A@@@YAXUQureg@@V?$vector@HV?$allocator@H@std@@@std@@11UDiagMatr@@V?$complex@N@2@@Z
	??$cpu_statevec_anyCtrlAnyTargDiagMatr_sub@$02$02$0A@$00@@YAXUQureg@@V?$vector@HV?$allocator@H@std@@@std@@11UDiagMatr@@V?$complex@N@2@@Z
	??$cpu_statevec_anyCtrlAnyTargDiagMatr_sub@$02$02$0A@$0A@@@YAXUQureg@@V?$vector@HV?$allocator@H@std@@@std@@11UDiagMatr@@V?$complex@N@2@@Z
	??$cpu_statevec_anyCtrlAnyTargDiagMatr_sub@$02$03$00$00@@YAXUQureg@@V?$vector@HV?$allocator@H@std@@@std@@11UDiagMatr@@V?$complex@N@2@@Z
	??$cpu_statevec_anyCtrlAnyTargDiagMatr_sub@$02$03$00$0A@@@YAXUQureg@@V?$vector@HV?$allocator@H@std@@@std@@11UDiagMatr@@V?$complex@N@2@@Z
	??$cpu_statevec_anyCtrlAnyTargDiagMatr_sub@$02$03$0A@$00@@YAXUQureg@@V?$vector@HV?$allocator@H@std@@@std@@11UDiagMatr@@V?$complex@N@2@@Z
	??$cpu_statevec_anyCtrlAnyTargDiagMatr_sub@$02$03$0A@$0A@@@YAXUQureg@@V?$vector@HV?$allocator@H@std@@@std@@11UDiagMatr@@V?$complex@N@2@@Z
	??$cpu_statevec_anyCtrlAnyTargDiagMatr_sub@$02$04$00$00@@YAXUQureg@@V?$vector@HV?$allocator@H@std@@@std@@11UDiagMatr@@V?$complex@N@2@@Z
	??$cpu_statevec_anyCtrlAnyTargDiagMatr_sub@$02$04$00$0A@@@YAXUQureg@@V?$vector@HV?$allocator@H@std@@@std@@11UDiagMatr@@V?$complex@N@2@@Z
	??$cpu_statevec_anyCtrlAnyTargDiagMatr_sub@$02$04$0A@$00@@YAXUQureg@@V?$vector@HV?$allocator@H@std@@@std@@11UDiagMatr@@V?$complex@N@2@@Z
	??$cpu_statevec_anyCtrlAnyTargDiagMatr_sub@$02$04$0A@$0A@@@YAXUQureg@@V?$vector@HV?$allocator@H@std@@@std@@11UDiagMatr@@V?$complex@N@2@@Z
	??$cpu_statevec_anyCtrlAnyTargDiagMatr_sub@$02$0?0$00$00@@YAXUQureg@@V?$vector@HV?$allocator@H@std@@@std@@11UDiagMatr@@V?$complex@N@2@@Z
	??$cpu_statevec_anyCtrlAnyTargDiagMatr_sub@$02$0?0$00$0A@@@YAXUQureg@@V?$vector@HV?$allocator@H@std@@@std@@11UDiagMatr@@V?$complex@N@2@@Z
	??$cpu_statevec_anyCtrlAnyTargDiagMatr_sub@$02$0?0$0A@$00@@YAXUQureg@@V?$vector@HV?$allocator@H@std@@@std@@11UDiagMatr@@V?$complex@N@2@@Z
	??$cpu_statevec_anyCtrlAnyTargDiagMatr_sub@$02$0?0$0A@$0A@@@YAXUQureg@@V?$vector@HV?$allocator@H@std@@@std@@11UDiagMatr@@V?$complex@N@2@@Z
	??$cpu_statevec_anyCtrlAnyTargDiagMatr_sub@$02$0A@$00$00@@YAXUQureg@@V?$vector@HV?$allocator@H@std@@@std@@11UDiagMatr@@V?$complex@N@2@@Z
	??$cpu_statevec_anyCtrlAnyTargDiagMatr_sub@$02$0A@$00$0A@@@YAXUQureg@@V?$vector@HV?$allocator@H@std@@@std@@11UDiagMatr@@V?$complex@N@2@@Z
	??$cpu_statevec_anyCtrlAnyTargDiagMatr_sub@$02$0A@$0A@$00@@YAXUQureg@@V?$vector@HV?$allocator@H@std@@@std@@11UDiagMatr@@V?$complex@N@2@@Z
	??$cpu_statevec_anyCtrlAnyTargDiagMatr_sub@$02$0A@$0A@$0A@@@YAXUQureg@@V?$vector@HV?$allocator@H@std@@@std@@11UDiagMatr@@V?$complex@N@2@@Z
	??$cpu_statevec_anyCtrlAnyTargDiagMatr_sub@$03$00$00$00@@YAXUQureg@@V?$vector@HV?$allocator@H@std@@@std@@11UDiagMatr@@V?$complex@N@2@@Z
	??$cpu_statevec_anyCtrlAnyTargDiagMatr_sub@$03$00$00$0A@@@YAXUQureg@@V?$vector@HV?$allocator@H@std@@@std@@11UDiagMatr@@V?$complex@N@2@@Z
	??$cpu_statevec_anyCtrlAnyTargDiagMatr_sub@$03$00$0A@$00@@YAXUQureg@@V?$vector@HV?$allocator@H@std@@@std@@11UDiagMatr@@V?$complex@N@2@@Z
	??$cpu_statevec_anyCtrlAnyTargDiagMatr_sub@$03$00$0A@$0A@@@YAXUQureg@@V?$vector@HV?$allocator@H@std@@@std@@11UDiagMatr@@V?$complex@N@2@@Z
	??$cpu_statevec_anyCtrlAnyTargDiagMatr_sub@$03$01$00$00@@YAXUQureg@@V?$vector@HV?$allocator@H@std@@@std@@11UDiagMatr@@V?$complex@N@2@@Z
	??$cpu_statevec_anyCtrlAnyTargDiagMatr_sub@$03$01$00$0A@@@YAXUQureg@@V?$vector@HV?$allocator@H@std@@@std@@11UDiagMatr@@V?$complex@N@2@@Z
	??$cpu_statevec_anyCtrlAnyTargDiagMatr_sub@$03$01$0A@$00@@YAXUQureg@@V?$vector@HV?$allocator@H@std@@@std@@11UDiagMatr@@V?$complex@N@2@@Z
	??$cpu_statevec_anyCtrlAnyTargDiagMatr_sub@$03$01$0A@$0A@@@YAXUQureg@@V?$vector@HV?$allocator@H@std@@@std@@11UDiagMatr@@V?$complex@N@2@@Z
	??$cpu_statevec_anyCtrlAnyTargDiagMatr_sub@$03$02$00$00@@YAXUQureg@@V?$vector@HV?$allocator@H@std@@@std@@11UDiagMatr@@V?$complex@N@2@@Z
	??$cpu_statevec_anyCtrlAnyTargDiagMatr_sub@$03$02$00$0A@@@YAXUQureg@@V?$vector@HV?$allocator@H@std@@@std@@11UDiagMatr@@V?$complex@N@2@@Z
	??$cpu_statevec_anyCtrlAnyTargDiagMatr_sub@$03$02$0A@$00@@YAXUQureg@@V?$vector@HV?$allocator@H@std@@@std@@11UDiagMatr@@V?$complex@N@2@@Z
	??$cpu_statevec_anyCtrlAnyTargDiagMatr_sub@$03$02$0A@$0A@@@YAXUQureg@@V?$vector@HV?$allocator@H@std@@@std@@11UDiagMatr@@V?$complex@N@2@@Z
	??$cpu_statevec_anyCtrlAnyTargDiagMatr_sub@$03$03$00$00@@YAXUQureg@@V?$vector@HV?$allocator@H@std@@@std@@11UDiagMatr@@V?$complex@N@2@@Z
	??$cpu_statevec_anyCtrlAnyTargDiagMatr_sub@$03$03$00$0A@@@YAXUQureg@@V?$vector@HV?$allocator@H@std@@@std@@11UDiagMatr@@V?$complex@N@2@@Z
	??$cpu_statevec_anyCtrlAnyTargDiagMatr_sub@$03$03$0A@$00@@YAXUQureg@@V?$vector@HV?$allocator@H@std@@@std@@11UDiagMatr@@V?$complex@N@2@@Z
	??$cpu_statevec_anyCtrlAnyTargDiagMatr_sub@$03$03$0A@$0A@@@YAXUQureg@@V?$vector@HV?$allocator@H@std@@@std@@11UDiagMatr@@V?$complex@N@2@@Z
	??$cpu_statevec_anyCtrlAnyTargDiagMatr_sub@$03$04$00$00@@YAXUQureg@@V?$vector@HV?$allocator@H@std@@@std@@11UDiagMatr@@V?$complex@N@2@@Z
	??$cpu_statevec_anyCtrlAnyTargDiagMatr_sub@$03$04$00$0A@@@YAXUQureg@@V?$vector@HV?$allocator@H@std@@@std@@11UDiagMatr@@V?$complex@N@2@@Z
	??$cpu_statevec_anyCtrlAnyTargDiagMatr_sub@$03$04$0A@$00@@YAXUQureg@@V?$vector@HV?$allocator@H@std@@@std@@11UDiagMatr@@V?$complex@N@2@@Z
	??$cpu_statevec_anyCtrlAnyTargDiagMatr_sub@$03$04$0A@$0A@@@YAXUQureg@@V?$vector@HV?$allocator@H@std@@@std@@11UDiagMatr@@V?$complex@N@2@@Z
	??$cpu_statevec_anyCtrlAnyTargDiagMatr_sub@$03$0?0$00$00@@YAXUQureg@@V?$vector@HV?$allocator@H@std@@@std@@11UDiagMatr@@V?$complex@N@2@@Z
	??$cpu_statevec_anyCtrlAnyTargDiagMatr_sub@$03$0?0$00$0A@@@YAXUQureg@@V?$vector@HV?$allocator@H@std@@@std@@11UDiagMatr@@V?$complex@N@2@@Z
	??$cpu_statevec_anyCtrlAnyTargDiagMatr_sub@$03$0?0$0A@$00@@YAXUQureg@@V?$vector@HV?$allocator@H@std@@@std@@11UDiagMatr@@V?$complex@N@2@@Z
	??$cpu_statevec_anyCtrlAnyTargDiagMatr_sub@$03$0?0$0A@$0A@@@YAXUQureg@@V?$vector@HV?$allocator@H@std@@@std@@11UDiagMatr@@V?$complex@N@2@@Z
	??$cpu_statevec_anyCtrlAnyTargDiagMatr_sub@$03$0A@$00$00@@YAXUQureg@@V?$vector@HV?$allocator@H@std@@@std@@11UDiagMatr@@V?$complex@N@2@@Z
	??$cpu_statevec_anyCtrlAnyTargDiagMatr_sub@$03$0A@$00$0A@@@YAXUQureg@@V?$vector@HV?$allocator@H@std@@@std@@11UDiagMatr@@V?$complex@N@2@@Z
	??$cpu_statevec_anyCtrlAnyTargDiagMatr_sub@$03$0A@$0A@$00@@YAXUQureg@@V?$vector@HV?$allocator@H@std@@@std@@11UDiagMatr@@V?$complex@N@2@@Z
	??$cpu_statevec_anyCtrlAnyTargDiagMatr_sub@$03$0A@$0A@$0A@@@YAXUQureg@@V?$vector@HV?$allocator@H@std@@@std@@11UDiagMatr@@V?$complex@N@2@@Z
	??$cpu_statevec_anyCtrlAnyTargDiagMatr_sub@$04$00$00$00@@YAXUQureg@@V?$vector@HV?$allocator@H@std@@@std@@11UDiagMatr@@V?$complex@N@2@@Z
	??$cpu_statevec_anyCtrlAnyTargDiagMatr_sub@$04$00$00$0A@@@YAXUQureg@@V?$vector@HV?$allocator@H@std@@@std@@11UDiagMatr@@V?$complex@N@2@@Z
	??$cpu_statevec_anyCtrlAnyTargDiagMatr_sub@$04$00$0A@$00@@YAXUQureg@@V?$vector@HV?$allocator@H@std@@@std@@11UDiagMatr@@V?$complex@N@2@@Z
	??$cpu_statevec_anyCtrlAnyTargDiagMatr_sub@$04$00$0A@$0A@@@YAXUQureg@@V?$vector@HV?$allocator@H@std@@@std@@11UDiagMatr@@V?$complex@N@2@@Z
	??$cpu_statevec_anyCtrlAnyTargDiagMatr_sub@$04$01$00$00@@YAXUQureg@@V?$vector@HV?$allocator@H@std@@@std@@11UDiagMatr@@V?$complex@N@2@@Z
	??$cpu_statevec_anyCtrlAnyTargDiagMatr_sub@$04$01$00$0A@@@YAXUQureg@@V?$vector@HV?$allocator@H@std@@@std@@11UDiagMatr@@V?$complex@N@2@@Z
	??$cpu_statevec_anyCtrlAnyTargDiagMatr_sub@$04$01$0A@$00@@YAXUQureg@@V?$vector@HV?$allocator@H@std@@@std@@11UDiagMatr@@V?$complex@N@2@@Z
	??$cpu_statevec_anyCtrlAnyTargDiagMatr_sub@$04$01$0A@$0A@@@YAXUQureg@@V?$vector@HV?$allocator@H@std@@@std@@11UDiagMatr@@V?$complex@N@2@@Z
	??$cpu_statevec_anyCtrlAnyTargDiagMatr_sub@$04$02$00$00@@YAXUQureg@@V?$vector@HV?$allocator@H@std@@@std@@11UDiagMatr@@V?$complex@N@2@@Z
	??$cpu_statevec_anyCtrlAnyTargDiagMatr_sub@$04$02$00$0A@@@YAXUQureg@@V?$vector@HV?$allocator@H@std@@@std@@11UDiagMatr@@V?$complex@N@2@@Z
	??$cpu_statevec_anyCtrlAnyTargDiagMatr_sub@$04$02$0A@$00@@YAXUQureg@@V?$vector@HV?$allocator@H@std@@@std@@11UDiagMatr@@V?$complex@N@2@@Z
	??$cpu_statevec_anyCtrlAnyTargDiagMatr_sub@$04$02$0A@$0A@@@YAXUQureg@@V?$vector@HV?$allocator@H@std@@@std@@11UDiagMatr@@V?$complex@N@2@@Z
	??$cpu_statevec_anyCtrlAnyTargDiagMatr_sub@$04$03$00$00@@YAXUQureg@@V?$vector@HV?$allocator@H@std@@@std@@11UDiagMatr@@V?$complex@N@2@@Z
	??$cpu_statevec_anyCtrlAnyTargDiagMatr_sub@$04$03$00$0A@@@YAXUQureg@@V?$vector@HV?$allocator@H@std@@@std@@11UDiagMatr@@V?$complex@N@2@@Z
	??$cpu_statevec_anyCtrlAnyTargDiagMatr_sub@$04$03$0A@$00@@YAXUQureg@@V?$vector@HV?$allocator@H@std@@@std@@11UDiagMatr@@V?$complex@N@2@@Z
	??$cpu_statevec_anyCtrlAnyTargDiagMatr_sub@$04$03$0A@$0A@@@YAXUQureg@@V?$vector@HV?$allocator@H@std@@@std@@11UDiagMatr@@V?$complex@N@2@@Z
	??$cpu_statevec_anyCtrlAnyTargDiagMatr_sub@$04$04$00$00@@YAXUQureg@@V?$vector@HV?$allocator@H@std@@@std@@11UDiagMatr@@V?$complex@N@2@@Z
	??$cpu_statevec_anyCtrlAnyTargDiagMatr_sub@$04$04$00$0A@@@YAXUQureg@@V?$vector@HV?$allocator@H@std@@@std@@11UDiagMatr@@V?$complex@N@2@@Z
	??$cpu_statevec_anyCtrlAnyTargDiagMatr_sub@$04$04$0A@$00@@YAXUQureg@@V?$vector@HV?$allocator@H@std@@@std@@11UDiagMatr@@V?$complex@N@2@@Z
	??$cpu_statevec_anyCtrlAnyTargDiagMatr_sub@$04$04$0A@$0A@@@YAXUQureg@@V?$vector@HV?$allocator@H@std@@@std@@11UDiagMatr@@V?$complex@N@2@@Z
	??$cpu_statevec_anyCtrlAnyTargDiagMatr_sub@$04$0?0$00$00@@YAXUQureg@@V?$vector@HV?$allocator@H@std@@@std@@11UDiagMatr@@V?$complex@N@2@@Z
	??$cpu_statevec_anyCtrlAnyTargDiagMatr_sub@$04$0?0$00$0A@@@YAXUQureg@@V?$vector@HV?$allocator@H@std@@@std@@11UDiagMatr@@V?$complex@N@2@@Z
	??$cpu_statevec_anyCtrlAnyTargDiagMatr_sub@$04$0?0$0A@$00@@YAXUQureg@@V?$vector@HV?$allocator@H@std@@@std@@11UDiagMatr@@V?$complex@N@2@@Z
	??$cpu_statevec_anyCtrlAnyTargDiagMatr_sub@$04$0?0$0A@$0A@@@YAXUQureg@@V?$vector@HV?$allocator@H@std@@@std@@11UDiagMatr@@V?$complex@N@2@@Z
	??$cpu_statevec_anyCtrlAnyTargDiagMatr_sub@$04$0A@$00$00@@YAXUQureg@@V?$vector@HV?$allocator@H@std@@@std@@11UDiagMatr@@V?$complex@N@2@@Z
	??$cpu_statevec_anyCtrlAnyTargDiagMatr_sub@$04$0A@$00$0A@@@YAXUQureg@@V?$vector@HV?$allocator@H@std@@@std@@11UDiagMatr@@V?$complex@N@2@@Z
	??$cpu_statevec_anyCtrlAnyTargDiagMatr_sub@$04$0A@$0A@$00@@YAXUQureg@@V?$vector@HV?$allocator@H@std@@@std@@11UDiagMatr@@V?$complex@N@2@@Z
	??$cpu_statevec_anyCtrlAnyTargDiagMatr_sub@$04$0A@$0A@$0A@@@YAXUQureg@@V?$vector@HV?$allocator@H@std@@@std@@11UDiagMatr@@V?$complex@N@2@@Z
	??$cpu_statevec_anyCtrlAnyTargDiagMatr_sub@$0?0$00$00$00@@YAXUQureg@@V?$vector@HV?$allocator@H@std@@@std@@11UDiagMatr@@V?$complex@N@2@@Z
	??$cpu_statevec_anyCtrlAnyTargDiagMatr_sub@$0?0$00$00$0A@@@YAXUQureg@@V?$vector@HV?$allocator@H@std@@@std@@11UDiagMatr@@V?$complex@N@2@@Z
	??$cpu_statevec_anyCtrlAnyTargDiagMatr_sub@$0?0$00$0A@$00@@YAXUQureg@@V?$vector@HV?$allocator@H@std@@@std@@11UDiagMatr@@V?$complex@N@2@@Z
	??$cpu_statevec_anyCtrlAnyTargDiagMatr_sub@$0?0$00$0A@$0A@@@YAXUQureg@@V?$vector@HV?$allocator@H@std@@@std@@11UDiagMatr@@V?$complex@N@2@@Z
	??$cpu_statevec_anyCtrlAnyTargDiagMatr_sub@$0?0$01$00$00@@YAXUQureg@@V?$vector@HV?$allocator@H@std@@@std@@11UDiagMatr@@V?$complex@N@2@@Z
	??$cpu_statevec_anyCtrlAnyTargDiagMatr_sub@$0?0$01$00$0A@@@YAXUQureg@@V?$vector@HV?$allocator@H@std@@@std@@11UDiagMatr@@V?$complex@N@2@@Z
	??$cpu_statevec_anyCtrlAnyTargDiagMatr_sub@$0?0$01$0A@$00@@YAXUQureg@@V?$vector@HV?$allocator@H@std@@@std@@11UDiagMatr@@V?$complex@N@2@@Z
	??$cpu_statevec_anyCtrlAnyTargDiagMatr_sub@$0?0$01$0A@$0A@@@YAXUQureg@@V?$vector@HV?$allocator@H@std@@@std@@11UDiagMatr@@V?$complex@N@2@@Z
	??$cpu_statevec_anyCtrlAnyTargDiagMatr_sub@$0?0$02$00$00@@YAXUQureg@@V?$vector@HV?$allocator@H@std@@@std@@11UDiagMatr@@V?$complex@N@2@@Z
	??$cpu_statevec_anyCtrlAnyTargDiagMatr_sub@$0?0$02$00$0A@@@YAXUQureg@@V?$vector@HV?$allocator@H@std@@@std@@11UDiagMatr@@V?$complex@N@2@@Z
	??$cpu_statevec_anyCtrlAnyTargDiagMatr_sub@$0?0$02$0A@$00@@YAXUQureg@@V?$vector@HV?$allocator@H@std@@@std@@11UDiagMatr@@V?$complex@N@2@@Z
	??$cpu_statevec_anyCtrlAnyTargDiagMatr_sub@$0?0$02$0A@$0A@@@YAXUQureg@@V?$vector@HV?$allocator@H@std@@@std@@11UDiagMatr@@V?$complex@N@2@@Z
	??$cpu_statevec_anyCtrlAnyTargDiagMatr_sub@$0?0$03$00$00@@YAXUQureg@@V?$vector@HV?$allocator@H@std@@@std@@11UDiagMatr@@V?$complex@N@2@@Z
	??$cpu_statevec_anyCtrlAnyTargDiagMatr_sub@$0?0$03$00$0A@@@YAXUQureg@@V?$vector@HV?$allocator@H@std@@@std@@11UDiagMatr@@V?$complex@N@2@@Z
	??$cpu_statevec_anyCtrlAnyTargDiagMatr_sub@$0?0$03$0A@$00@@YAXUQureg@@V?$vector@HV?$allocator@H@std@@@std@@11UDiagMatr@@V?$complex@N@2@@Z
	??$cpu_statevec_anyCtrlAnyTargDiagMatr_sub@$0?0$03$0A@$0A@@@YAXUQureg@@V?$vector@HV?$allocator@H@std@@@std@@11UDiagMatr@@V?$complex@N@2@@Z
	??$cpu_statevec_anyCtrlAnyTargDiagMatr_sub@$0?0$04$00$00@@YAXUQureg@@V?$vector@HV?$allocator@H@std@@@std@@11UDiagMatr@@V?$complex@N@2@@Z
	??$cpu_statevec_anyCtrlAnyTargDiagMatr_sub@$0?0$04$00$0A@@@YAXUQureg@@V?$vector@HV?$allocator@H@std@@@std@@11UDiagMatr@@V?$complex@N@2@@Z
	??$cpu_statevec_anyCtrlAnyTargDiagMatr_sub@$0?0$04$0A@$00@@YAXUQureg@@V?$vector@HV?$allocator@H@std@@@std@@11UDiagMatr@@V?$complex@N@2@@Z
	??$cpu_statevec_anyCtrlAnyTargDiagMatr_sub@$0?0$04$0A@$0A@@@YAXUQureg@@V?$vector@HV?$allocator@H@std@@@std@@11UDiagMatr@@V?$complex@N@2@@Z
	??$cpu_statevec_anyCtrlAnyTargDiagMatr_sub@$0?0$0?0$00$00@@YAXUQureg@@V?$vector@HV?$allocator@H@std@@@std@@11UDiagMatr@@V?$complex@N@2@@Z
	??$cpu_statevec_anyCtrlAnyTargDiagMatr_sub@$0?0$0?0$00$0A@@@YAXUQureg@@V?$vector@HV?$allocator@H@std@@@std@@11UDiagMatr@@V?$complex@N@2@@Z
	??$cpu_statevec_anyCtrlAnyTargDiagMatr_sub@$0?0$0?0$0A@$00@@YAXUQureg@@V?$vector@HV?$allocator@H@std@@@std@@11UDiagMatr@@V?$complex@N@2@@Z
	??$cpu_statevec_anyCtrlAnyTargDiagMatr_sub@$0?0$0?0$0A@$0A@@@YAXUQureg@@V?$vector@HV?$allocator@H@std@@@std@@11UDiagMatr@@V?$complex@N@2@@Z
	??$cpu_statevec_anyCtrlAnyTargDiagMatr_sub@$0?0$0A@$00$00@@YAXUQureg@@V?$vector@HV?$allocator@H@std@@@std@@11UDiagMatr@@V?$complex@N@2@@Z
	??$cpu_statevec_anyCtrlAnyTargDiagMatr_sub@$0?0$0A@$00$0A@@@YAXUQureg@@V?$vector@HV?$allocator@H@std@@@std@@11UDiagMatr@@V?$complex@N@2@@Z
	??$cpu_statevec_anyCtrlAnyTargDiagMatr_sub@$0?0$0A@$0A@$00@@YAXUQureg@@V?$vector@HV?$allocator@H@std@@@std@@11UDiagMatr@@V?$complex@N@2@@Z
	??$cpu_statevec_anyCtrlAnyTargDiagMatr_sub@$0?0$0A@$0A@$0A@@@YAXUQureg@@V?$vector@HV?$allocator@H@std@@@std@@11UDiagMatr@@V?$complex@N@2@@Z
	??$cpu_statevec_anyCtrlAnyTargDiagMatr_sub@$0A@$00$00$00@@YAXUQureg@@V?$vector@HV?$allocator@H@std@@@std@@11UDiagMatr@@V?$complex@N@2@@Z
	??$cpu_statevec_anyCtrlAnyTargDiagMatr_sub@$0A@$00$00$0A@@@YAXUQureg@@V?$vector@HV?$allocator@H@std@@@std@@11UDiagMatr@@V?$complex@N@2@@Z
	??$cpu_statevec_anyCtrlAnyTargDiagMatr_sub@$0A@$00$0A@$00@@YAXUQureg@@V?$vector@HV?$allocator@H@std@@@std@@11UDiagMatr@@V?$complex@N@2@@Z
	??$cpu_statevec_anyCtrlAnyTargDiagMatr_sub@$0A@$00$0A@$0A@@@YAXUQureg@@V?$vector@HV?$allocator@H@std@@@std@@11UDiagMatr@@V?$complex@N@2@@Z
	??$cpu_statevec_anyCtrlAnyTargDiagMatr_sub@$0A@$01$00$00@@YAXUQureg@@V?$vector@HV?$allocator@H@std@@@std@@11UDiagMatr@@V?$complex@N@2@@Z
	??$cpu_statevec_anyCtrlAnyTargDiagMatr_sub@$0A@$01$00$0A@@@YAXUQureg@@V?$vector@HV?$allocator@H@std@@@std@@11UDiagMatr@@V?$complex@N@2@@Z
	??$cpu_statevec_anyCtrlAnyTargDiagMatr_sub@$0A@$01$0A@$00@@YAXUQureg@@V?$vector@HV?$allocator@H@std@@@std@@11UDiagMatr@@V?$complex@N@2@@Z
	??$cpu_statevec_anyCtrlAnyTargDiagMatr_sub@$0A@$01$0A@$0A@@@YAXUQureg@@V?$vector@HV?$allocator@H@std@@@std@@11UDiagMatr@@V?$complex@N@2@@Z
	??$cpu_statevec_anyCtrlAnyTargDiagMatr_sub@$0A@$02$00$00@@YAXUQureg@@V?$vector@HV?$allocator@H@std@@@std@@11UDiagMatr@@V?$complex@N@2@@Z
	??$cpu_statevec_anyCtrlAnyTargDiagMatr_sub@$0A@$02$00$0A@@@YAXUQureg@@V?$vector@HV?$allocator@H@std@@@std@@11UDiagMatr@@V?$complex@N@2@@Z
	??$cpu_statevec_anyCtrlAnyTargDiagMatr_sub@$0A@$02$0A@$00@@YAXUQureg@@V?$vector@HV?$allocator@H@std@@@std@@11UDiagMatr@@V?$complex@N@2@@Z
	??$cpu_statevec_anyCtrlAnyTargDiagMatr_sub@$0A@$02$0A@$0A@@@YAXUQureg@@V?$vector@HV?$allocator@H@std@@@std@@11UDiagMatr@@V?$complex@N@2@@Z
	??$cpu_statevec_anyCtrlAnyTargDiagMatr_sub@$0A@$03$00$00@@YAXUQureg@@V?$vector@HV?$allocator@H@std@@@std@@11UDiagMatr@@V?$complex@N@2@@Z
	??$cpu_statevec_anyCtrlAnyTargDiagMatr_sub@$0A@$03$00$0A@@@YAXUQureg@@V?$vector@HV?$allocator@H@std@@@std@@11UDiagMatr@@V?$complex@N@2@@Z
	??$cpu_statevec_anyCtrlAnyTargDiagMatr_sub@$0A@$03$0A@$00@@YAXUQureg@@V?$vector@HV?$allocator@H@std@@@std@@11UDiagMatr@@V?$complex@N@2@@Z
	??$cpu_statevec_anyCtrlAnyTargDiagMatr_sub@$0A@$03$0A@$0A@@@YAXUQureg@@V?$vector@HV?$allocator@H@std@@@std@@11UDiagMatr@@V?$complex@N@2@@Z
	??$cpu_statevec_anyCtrlAnyTargDiagMatr_sub@$0A@$04$00$00@@YAXUQureg@@V?$vector@HV?$allocator@H@std@@@std@@11UDiagMatr@@V?$complex@N@2@@Z
	??$cpu_statevec_anyCtrlAnyTargDiagMatr_sub@$0A@$04$00$0A@@@YAXUQureg@@V?$vector@HV?$allocator@H@std@@@std@@11UDiagMatr@@V?$complex@N@2@@Z
	??$cpu_statevec_anyCtrlAnyTargDiagMatr_sub@$0A@$04$0A@$00@@YAXUQureg@@V?$vector@HV?$allocator@H@std@@@std@@11UDiagMatr@@V?$complex@N@2@@Z
	??$cpu_statevec_anyCtrlAnyTargDiagMatr_sub@$0A@$04$0A@$0A@@@YAXUQureg@@V?$vector@HV?$allocator@H@std@@@std@@11UDiagMatr@@V?$complex@N@2@@Z
	??$cpu_statevec_anyCtrlAnyTargDiagMatr_sub@$0A@$0?0$00$00@@YAXUQureg@@V?$vector@HV?$allocator@H@std@@@std@@11UDiagMatr@@V?$complex@N@2@@Z
	??$cpu_statevec_anyCtrlAnyTargDiagMatr_sub@$0A@$0?0$00$0A@@@YAXUQureg@@V?$vector@HV?$allocator@H@std@@@std@@11UDiagMatr@@V?$complex@N@2@@Z
	??$cpu_statevec_anyCtrlAnyTargDiagMatr_sub@$0A@$0?0$0A@$00@@YAXUQureg@@V?$vector@HV?$allocator@H@std@@@std@@11UDiagMatr@@V?$complex@N@2@@Z
	??$cpu_statevec_anyCtrlAnyTargDiagMatr_sub@$0A@$0?0$0A@$0A@@@YAXUQureg@@V?$vector@HV?$allocator@H@std@@@std@@11UDiagMatr@@V?$complex@N@2@@Z
	??$cpu_statevec_anyCtrlAnyTargDiagMatr_sub@$0A@$0A@$00$00@@YAXUQureg@@V?$vector@HV?$allocator@H@std@@@std@@11UDiagMatr@@V?$complex@N@2@@Z
	??$cpu_statevec_anyCtrlAnyTargDiagMatr_sub@$0A@$0A@$00$0A@@@YAXUQureg@@V?$vector@HV?$allocator@H@std@@@std@@11UDiagMatr@@V?$complex@N@2@@Z
	??$cpu_statevec_anyCtrlAnyTargDiagMatr_sub@$0A@$0A@$0A@$00@@YAXUQureg@@V?$vector@HV?$allocator@H@std@@@std@@11UDiagMatr@@V?$complex@N@2@@Z
	??$cpu_statevec_anyCtrlAnyTargDiagMatr_sub@$0A@$0A@$0A@$0A@@@YAXUQureg@@V?$vector@HV?$allocator@H@std@@@std@@11UDiagMatr@@V?$complex@N@2@@Z
	??$cpu_statevec_anyCtrlOneTargDenseMatr_subA@$00@@YAXUQureg@@V?$vector@HV?$allocator@H@std@@@std@@1HUCompMatr1@@@Z
	??$cpu_statevec_anyCtrlOneTargDenseMatr_subA@$01@@YAXUQureg@@V?$vector@HV?$allocator@H@std@@@std@@1HUCompMatr1@@@Z
	??$cpu_statevec_anyCtrlOneTargDenseMatr_subA@$02@@YAXUQureg@@V?$vector@HV?$allocator@H@std@@@std@@1HUCompMatr1@@@Z
	??$cpu_statevec_anyCtrlOneTargDenseMatr_subA@$03@@YAXUQureg@@V?$vector@HV?$allocator@H@std@@@std@@1HUCompMatr1@@@Z
	??$cpu_statevec_anyCtrlOneTargDenseMatr_subA@$04@@YAXUQureg@@V?$vector@HV?$allocator@H@std@@@std@@1HUCompMatr1@@@Z
	??$cpu_statevec_anyCtrlOneTargDenseMatr_subA@$0?0@@YAXUQureg@@V?$vector@HV?$allocator@H@std@@@std@@1HUCompMatr1@@@Z
	??$cpu_statevec_anyCtrlOneTargDenseMatr_subA@$0A@@@YAXUQureg@@V?$vector@HV?$allocator@H@std@@@std@@1HUCompMatr1@@@Z
	??$cpu_statevec_anyCtrlOneTargDenseMatr_subB@$00@@YAXUQureg@@V?$vector@HV?$allocator@H@std@@@std@@1V?$complex@N@2@2@Z
	??$cpu_statevec_anyCtrlOneTargDenseMatr_subB@$01@@YAXUQureg@@V?$vector@HV?$allocator@H@std@@@std@@1V?$complex@N@2@2@Z
	??$cpu_statevec_anyCtrlOneTargDenseMatr_subB@$02@@YAXUQureg@@V?$vector@HV?$allocator@H@std@@@std@@1V?$complex@N@2@2@Z
	??$cpu_statevec_anyCtrlOneTargDenseMatr_subB@$03@@YAXUQureg@@V?$vector@HV?$allocator@H@std@@@std@@1V?$complex@N@2@2@Z
	??$cpu_statevec_anyCtrlOneTargDenseMatr_subB@$04@@YAXUQureg@@V?$vector@HV?$allocator@H@std@@@std@@1V?$complex@N@2@2@Z
	??$cpu_statevec_anyCtrlOneTargDenseMatr_subB@$0?0@@YAXUQureg@@V?$vector@HV?$allocator@H@std@@@std@@1V?$complex@N@2@2@Z
	??$cpu_statevec_anyCtrlOneTargDenseMatr_subB@$0A@@@YAXUQureg@@V?$vector@HV?$allocator@H@std@@@std@@1V?$complex@N@2@2@Z
	??$cpu_statevec_anyCtrlOneTargDiagMatr_sub@$00@@YAXUQureg@@V?$vector@HV?$allocator@H@std@@@std@@1HUDiagMatr1@@@Z
	??$cpu_statevec_anyCtrlOneTargDiagMatr_sub@$01@@YAXUQureg@@V?$vector@HV?$allocator@H@std@@@std@@1HUDiagMatr1@@@Z
	??$cpu_statevec_anyCtrlOneTargDiagMatr_sub@$02@@YAXUQureg@@V?$vector@HV?$allocator@H@std@@@std@@1HUDiagMatr1@@@Z
	??$cpu_statevec_anyCtrlOneTargDiagMatr_sub@$03@@YAXUQureg@@V?$vector@HV?$allocator@H@std@@@std@@1HUDiagMatr1@@@Z
	??$cpu_statevec_anyCtrlOneTargDiagMatr_sub@$04@@YAXUQureg@@V?$vector@HV?$allocator@H@std@@@std@@1HUDiagMatr1@@@Z
	??$cpu_statevec_anyCtrlOneTargDiagMatr_sub@$0?0@@YAXUQureg@@V?$vector@HV?$allocator@H@std@@@std@@1HUDiagMatr1@@@Z
	??$cpu_statevec_anyCtrlOneTargDiagMatr_sub@$0A@@@YAXUQureg@@V?$vector@HV?$allocator@H@std@@@std@@1HUDiagMatr1@@@Z
	??$cpu_statevec_anyCtrlSwap_subA@$00@@YAXUQureg@@V?$vector@HV?$allocator@H@std@@@std@@1HH@Z
	??$cpu_statevec_anyCtrlSwap_subA@$01@@YAXUQureg@@V?$vector@HV?$allocator@H@std@@@std@@1HH@Z
	??$cpu_statevec_anyCtrlSwap_subA@$02@@YAXUQureg@@V?$vector@HV?$allocator@H@std@@@std@@1HH@Z
	??$cpu_statevec_anyCtrlSwap_subA@$03@@YAXUQureg@@V?$vector@HV?$allocator@H@std@@@std@@1HH@Z
	??$cpu_statevec_anyCtrlSwap_subA@$04@@YAXUQureg@@V?$vector@HV?$allocator@H@std@@@std@@1HH@Z
	??$cpu_statevec_anyCtrlSwap_subA@$0?0@@YAXUQureg@@V?$vector@HV?$allocator@H@std@@@std@@1HH@Z
	??$cpu_statevec_anyCtrlSwap_subA@$0A@@@YAXUQureg@@V?$vector@HV?$allocator@H@std@@@std@@1HH@Z
	??$cpu_statevec_anyCtrlSwap_subB@$00@@YAXUQureg@@V?$vector@HV?$allocator@H@std@@@std@@1@Z
	??$cpu_statevec_anyCtrlSwap_subB@$01@@YAXUQureg@@V?$vector@HV?$allocator@H@std@@@std@@1@Z
	??$cpu_statevec_anyCtrlSwap_subB@$02@@YAXUQureg@@V?$vector@HV?$allocator@H@std@@@std@@1@Z
	??$cpu_statevec_anyCtrlSwap_subB@$03@@YAXUQureg@@V?$vector@HV?$allocator@H@std@@@std@@1@Z
	??$cpu_statevec_anyCtrlSwap_subB@$04@@YAXUQureg@@V?$vector@HV?$allocator@H@std@@@std@@1@Z
	??$cpu_statevec_anyCtrlSwap_subB@$0?0@@YAXUQureg@@V?$vector@HV?$allocator@H@std@@@std@@1@Z
	??$cpu_statevec_anyCtrlSwap_subB@$0A@@@YAXUQureg@@V?$vector@HV?$allocator@H@std@@@std@@1@Z
	??$cpu_statevec_anyCtrlSwap_subC@$00@@YAXUQureg@@V?$vector@HV?$allocator@H@std@@@std@@1HH@Z
	??$cpu_statevec_anyCtrlSwap_subC@$01@@YAXUQureg@@V?$vector@HV?$allocator@H@std@@@std@@1HH@Z
	??$cpu_statevec_anyCtrlSwap_subC@$02@@YAXUQureg@@V?$vector@HV?$allocator@H@std@@@std@@1HH@Z
	??$cpu_statevec_anyCtrlSwap_subC@$03@@YAXUQureg@@V?$vector@HV?$allocator@H@std@@@std@@1HH@Z
	??$cpu_statevec_anyCtrlSwap_subC@$04@@YAXUQureg@@V?$vector@HV?$allocator@H@std@@@std@@1HH@Z
	??$cpu_statevec_anyCtrlSwap_subC@$0?0@@YAXUQureg@@V?$vector@HV?$allocator@H@std@@@std@@1HH@Z
	??$cpu_statevec_anyCtrlSwap_subC@$0A@@@YAXUQureg@@V?$vector@HV?$allocator@H@std@@@std@@1HH@Z
	??$cpu_statevec_anyCtrlTwoTargDenseMatr_sub@$00@@YAXUQureg@@V?$vector@HV?$allocator@H@std@@@std@@1HHUCompMatr2@@@Z
	??$cpu_statevec_anyCtrlTwoTargDenseMatr_sub@$01@@YAXUQureg@@V?$vector@HV?$allocator@H@std@@@std@@1HHUCompMatr2@@@Z
	??$cpu_statevec_anyCtrlTwoTargDenseMatr_sub@$02@@YAXUQureg@@V?$vector@HV?$allocator@H@std@@@std@@1HHUCompMatr2@@@Z
	??$cpu_statevec_anyCtrlTwoTargDenseMatr_sub@$03@@YAXUQureg@@V?$vector@HV?$allocator@H@std@@@std@@1HHUCompMatr2@@@Z
	??$cpu_statevec_anyCtrlTwoTargDenseMatr_sub@$04@@YAXUQureg@@V?$vector@HV?$allocator@H@std@@@std@@1HHUCompMatr2@@@Z
	??$cpu_statevec_anyCtrlTwoTargDenseMatr_sub@$0?0@@YAXUQureg@@V?$vector@HV?$allocator@H@std@@@std@@1HHUCompMatr2@@@Z
	??$cpu_statevec_anyCtrlTwoTargDenseMatr_sub@$0A@@@YAXUQureg@@V?$vector@HV?$allocator@H@std@@@std@@1HHUCompMatr2@@@Z
	??$cpu_statevec_anyCtrlTwoTargDiagMatr_sub@$00@@YAXUQureg@@V?$vector@HV?$allocator@H@std@@@std@@1HHUDiagMatr2@@@Z
	??$cpu_statevec_anyCtrlTwoTargDiagMatr_sub@$01@@YAXUQureg@@V?$vector@HV?$allocator@H@std@@@std@@1HHUDiagMatr2@@@Z
	??$cpu_statevec_anyCtrlTwoTargDiagMatr_sub@$02@@YAXUQureg@@V?$vector@HV?$allocator@H@std@@@std@@1HHUDiagMatr2@@@Z
	??$cpu_statevec_anyCtrlTwoTargDiagMatr_sub@$03@@YAXUQureg@@V?$vector@HV?$allocator@H@std@@@std@@1HHUDiagMatr2@@@Z
	??$cpu_statevec_anyCtrlTwoTargDiagMatr_sub@$04@@YAXUQureg@@V?$vector@HV?$allocator@H@std@@@std@@1HHUDiagMatr2@@@Z
	??$cpu_statevec_anyCtrlTwoTargDiagMatr_sub@$0?0@@YAXUQureg@@V?$vector@HV?$allocator@H@std@@@std@@1HHUDiagMatr2@@@Z
	??$cpu_statevec_anyCtrlTwoTargDiagMatr_sub@$0A@@@YAXUQureg@@V?$vector@HV?$allocator@H@std@@@std@@1HHUDiagMatr2@@@Z
	??$cpu_statevec_calcExpecFullStateDiagMatr_sub@$00$00@@YA?AV?$complex@N@std@@UQureg@@UFullStateDiagMatr@@V01@@Z
	??$cpu_statevec_calcExpecFullStateDiagMatr_sub@$00$0A@@@YA?AV?$complex@N@std@@UQureg@@UFullStateDiagMatr@@V01@@Z
	??$cpu_statevec_calcExpecFullStateDiagMatr_sub@$0A@$00@@YA?AV?$complex@N@std@@UQureg@@UFullStateDiagMatr@@V01@@Z
	??$cpu_statevec_calcExpecFullStateDiagMatr_sub@$0A@$0A@@@YA?AV?$complex@N@std@@UQureg@@UFullStateDiagMatr@@V01@@Z
	??$cpu_statevec_calcProbOfMultiQubitOutcome_sub@$00@@YANUQureg@@V?$vector@HV?$allocator@H@std@@@std@@1@Z
	??$cpu_statevec_calcProbOfMultiQubitOutcome_sub@$01@@YANUQureg@@V?$vector@HV?$allocator@H@std@@@std@@1@Z
	??$cpu_statevec_calcProbOfMultiQubitOutcome_sub@$02@@YANUQureg@@V?$vector@HV?$allocator@H@std@@@std@@1@Z
	??$cpu_statevec_calcProbOfMultiQubitOutcome_sub@$03@@YANUQureg@@V?$vector@HV?$allocator@H@std@@@std@@1@Z
	??$cpu_statevec_calcProbOfMultiQubitOutcome_sub@$04@@YANUQureg@@V?$vector@HV?$allocator@H@std@@@std@@1@Z
	??$cpu_statevec_calcProbOfMultiQubitOutcome_sub@$0?0@@YANUQureg@@V?$vector@HV?$allocator@H@std@@@std@@1@Z
	??$cpu_statevec_calcProbOfMultiQubitOutcome_sub@$0A@@@YANUQureg@@V?$vector@HV?$allocator@H@std@@@std@@1@Z
	??$cpu_statevec_calcProbsOfAllMultiQubitOutcomes_sub@$00@@YAXPEANUQureg@@V?$vector@HV?$allocator@H@std@@@std@@@Z
	??$cpu_statevec_calcProbsOfAllMultiQubitOutcomes_sub@$01@@YAXPEANUQureg@@V?$vector@HV?$allocator@H@std@@@std@@@Z
	??$cpu_statevec_calcProbsOfAllMultiQubitOutcomes_sub@$02@@YAXPEANUQureg@@V?$vector@HV?$allocator@H@std@@@std@@@Z
	??$cpu_statevec_calcProbsOfAllMultiQubitOutcomes_sub@$03@@YAXPEANUQureg@@V?$vector@HV?$allocator@H@std@@@std@@@Z
	??$cpu_statevec_calcProbsOfAllMultiQubitOutcomes_sub@$04@@YAXPEANUQureg@@V?$vector@HV?$allocator@H@std@@@std@@@Z
	??$cpu_statevec_calcProbsOfAllMultiQubitOutcomes_sub@$0?0@@YAXPEANUQureg@@V?$vector@HV?$allocator@H@std@@@std@@@Z
	??$cpu_statevec_calcProbsOfAllMultiQubitOutcomes_sub@$0A@@@YAXPEANUQureg@@V?$vector@HV?$allocator@H@std@@@std@@@Z
	??$cpu_statevec_multiQubitProjector_sub@$00@@YAXUQureg@@V?$vector@HV?$allocator@H@std@@@std@@1N@Z
	??$cpu_statevec_multiQubitProjector_sub@$01@@YAXUQureg@@V?$vector@HV?$allocator@H@std@@@std@@1N@Z
	??$cpu_statevec_multiQubitProjector_sub@$02@@YAXUQureg@@V?$vector@HV?$allocator@H@std@@@std@@1N@Z
	??$cpu_statevec_multiQubitProjector_sub@$03@@YAXUQureg@@V?$vector@HV?$allocator@H@std@@@std@@1N@Z
	??$cpu_statevec_multiQubitProjector_sub@$04@@YAXUQureg@@V?$vector@HV?$allocator@H@std@@@std@@1N@Z
	??$cpu_statevec_multiQubitProjector_sub@$0?0@@YAXUQureg@@V?$vector@HV?$allocator@H@std@@@std@@1N@Z
	??$cpu_statevec_multiQubitProjector_sub@$0A@@@YAXUQureg@@V?$vector@HV?$allocator@H@std@@@std@@1N@Z
	??$cpu_statevec_packAmpsIntoBuffer@$00@@YA_JUQureg@@V?$vector@HV?$allocator@H@std@@@std@@1@Z
	??$cpu_statevec_packAmpsIntoBuffer@$01@@YA_JUQureg@@V?$vector@HV?$allocator@H@std@@@std@@1@Z
	??$cpu_statevec_packAmpsIntoBuffer@$02@@YA_JUQureg@@V?$vector@HV?$allocator@H@std@@@std@@1@Z
	??$cpu_statevec_packAmpsIntoBuffer@$03@@YA_JUQureg@@V?$vector@HV?$allocator@H@std@@@std@@1@Z
	??$cpu_statevec_packAmpsIntoBuffer@$04@@YA_JUQureg@@V?$vector@HV?$allocator@H@std@@@std@@1@Z
	??$cpu_statevec_packAmpsIntoBuffer@$0?0@@YA_JUQureg@@V?$vector@HV?$allocator@H@std@@@std@@1@Z
	??$cpu_statevec_packAmpsIntoBuffer@$0A@@@YA_JUQureg@@V?$vector@HV?$allocator@H@std@@@std@@1@Z
	??$cpu_statevector_anyCtrlAnyTargZOrPhaseGadget_sub@$00@@YAXUQureg@@V?$vector@HV?$allocator@H@std@@@std@@11V?$complex@N@2@2@Z
	??$cpu_statevector_anyCtrlAnyTargZOrPhaseGadget_sub@$01@@YAXUQureg@@V?$vector@HV?$allocator@H@std@@@std@@11V?$complex@N@2@2@Z
	??$cpu_statevector_anyCtrlAnyTargZOrPhaseGadget_sub@$02@@YAXUQureg@@V?$vector@HV?$allocator@H@std@@@std@@11V?$complex@N@2@2@Z
	??$cpu_statevector_anyCtrlAnyTargZOrPhaseGadget_sub@$03@@YAXUQureg@@V?$vector@HV?$allocator@H@std@@@std@@11V?$complex@N@2@2@Z
	??$cpu_statevector_anyCtrlAnyTargZOrPhaseGadget_sub@$04@@YAXUQureg@@V?$vector@HV?$allocator@H@std@@@std@@11V?$complex@N@2@2@Z
	??$cpu_statevector_anyCtrlAnyTargZOrPhaseGadget_sub@$0?0@@YAXUQureg@@V?$vector@HV?$allocator@H@std@@@std@@11V?$complex@N@2@2@Z
	??$cpu_statevector_anyCtrlAnyTargZOrPhaseGadget_sub@$0A@@@YAXUQureg@@V?$vector@HV?$allocator@H@std@@@std@@11V?$complex@N@2@2@Z
	??$cpu_statevector_anyCtrlPauliTensorOrGadget_subA@$00$00@@YAXUQureg@@V?$vector@HV?$allocator@H@std@@@std@@1111V?$complex@N@2@2@Z
	??$cpu_statevector_anyCtrlPauliTensorOrGadget_subA@$00$01@@YAXUQureg@@V?$vector@HV?$allocator@H@std@@@std@@1111V?$complex@N@2@2@Z
	??$cpu_statevector_anyCtrlPauliTensorOrGadget_subA@$00$02@@YAXUQureg@@V?$vector@HV?$allocator@H@std@@@std@@1111V?$complex@N@2@2@Z
	??$cpu_statevector_anyCtrlPauliTensorOrGadget_subA@$00$03@@YAXUQureg@@V?$vector@HV?$allocator@H@std@@@std@@1111V?$complex@N@2@2@Z
	??$cpu_statevector_anyCtrlPauliTensorOrGadget_subA@$00$04@@YAXUQureg@@V?$vector@HV?$allocator@H@std@@@std@@1111V?$complex@N@2@2@Z
	??$cpu_statevector_anyCtrlPauliTensorOrGadget_subA@$00$0?0@@YAXUQureg@@V?$vector@HV?$allocator@H@std@@@std@@1111V?$complex@N@2@2@Z
	??$cpu_statevector_anyCtrlPauliTensorOrGadget_subA@$00$0A@@@YAXUQureg@@V?$vector@HV?$allocator@H@std@@@std@@1111V?$complex@N@2@2@Z
	??$cpu_statevector_anyCtrlPauliTensorOrGadget_subA@$01$00@@YAXUQureg@@V?$vector@HV?$allocator@H@std@@@std@@1111V?$complex@N@2@2@Z
	??$cpu_statevector_anyCtrlPauliTensorOrGadget_subA@$01$01@@YAXUQureg@@V?$vector@HV?$allocator@H@std@@@std@@1111V?$complex@N@2@2@Z
	??$cpu_statevector_anyCtrlPauliTensorOrGadget_subA@$01$02@@YAXUQureg@@V?$vector@HV?$allocator@H@std@@@std@@1111V?$complex@N@2@2@Z
	??$cpu_statevector_anyCtrlPauliTensorOrGadget_subA@$01$03@@YAXUQureg@@V?$vector@HV?$allocator@H@std@@@std@@1111V?$complex@N@2@2@Z
	??$cpu_statevector_anyCtrlPauliTensorOrGadget_subA@$01$04@@YAXUQureg@@V?$vector@HV?$allocator@H@std@@@std@@1111V?$complex@N@2@2@Z
	??$cpu_statevector_anyCtrlPauliTensorOrGadget_subA@$01$0?0@@YAXUQureg@@V?$vector@HV?$allocator@H@std@@@std@@1111V?$complex@N@2@2@Z
	??$cpu_statevector_anyCtrlPauliTensorOrGadget_subA@$01$0A@@@YAXUQureg@@V?$vector@HV?$allocator@H@std@@@std@@1111V?$complex@N@2@2@Z
	??$cpu_statevector_anyCtrlPauliTensorOrGadget_subA@$02$00@@YAXUQureg@@V?$vector@HV?$allocator@H@std@@@std@@1111V?$complex@N@2@2@Z
	??$cpu_statevector_anyCtrlPauliTensorOrGadget_subA@$02$01@@YAXUQureg@@V?$vector@HV?$allocator@H@std@@@std@@1111V?$complex@N@2@2@Z
	??$cpu_statevector_anyCtrlPauliTensorOrGadget_subA@$02$02@@YAXUQureg@@V?$vector@HV?$allocator@H@std@@@std@@1111V?$complex@N@2@2@Z
	??$cpu_statevector_anyCtrlPauliTensorOrGadget_subA@$02$03@@YAXUQureg@@V?$vector@HV?$allocator@H@std@@@std@@1111V?$complex@N@2@2@Z
	??$cpu_statevector_anyCtrlPauliTensorOrGadget_subA@$02$04@@YAXUQureg@@V?$vector@HV?$allocator@H@std@@@std@@1111V?$complex@N@2@2@Z
	??$cpu_statevector_anyCtrlPauliTensorOrGadget_subA@$02$0?0@@YAXUQureg@@V?$vector@HV?$allocator@H@std@@@std@@1111V?$complex@N@2@2@Z
	??$cpu_statevector_anyCtrlPauliTensorOrGadget_subA@$02$0A@@@YAXUQureg@@V?$vector@HV?$allocator@H@std@@@std@@1111V?$complex@N@2@2@Z
	??$cpu_statevector_anyCtrlPauliTensorOrGadget_subA@$03$00@@YAXUQureg@@V?$vector@HV?$allocator@H@std@@@std@@1111V?$complex@N@2@2@Z
	??$cpu_statevector_anyCtrlPauliTensorOrGadget_subA@$03$01@@YAXUQureg@@V?$vector@HV?$allocator@H@std@@@std@@1111V?$complex@N@2@2@Z
	??$cpu_statevector_anyCtrlPauliTensorOrGadget_subA@$03$02@@YAXUQureg@@V?$vector@HV?$allocator@H@std@@@std@@1111V?$complex@N@2@2@Z
	??$cpu_statevector_anyCtrlPauliTensorOrGadget_subA@$03$03@@YAXUQureg@@V?$vector@HV?$allocator@H@std@@@std@@1111V?$complex@N@2@2@Z
	??$cpu_statevector_anyCtrlPauliTensorOrGadget_subA@$03$04@@YAXUQureg@@V?$vector@HV?$allocator@H@std@@@std@@1111V?$complex@N@2@2@Z
	??$cpu_statevector_anyCtrlPauliTensorOrGadget_subA@$03$0?0@@YAXUQureg@@V?$vector@HV?$allocator@H@std@@@std@@1111V?$complex@N@2@2@Z
	??$cpu_statevector_anyCtrlPauliTensorOrGadget_subA@$03$0A@@@YAXUQureg@@V?$vector@HV?$allocator@H@std@@@std@@1111V?$complex@N@2@2@Z
	??$cpu_statevector_anyCtrlPauliTensorOrGadget_subA@$04$00@@YAXUQureg@@V?$vector@HV?$allocator@H@std@@@std@@1111V?$complex@N@2@2@Z
	??$cpu_statevector_anyCtrlPauliTensorOrGadget_subA@$04$01@@YAXUQureg@@V?$vector@HV?$allocator@H@std@@@std@@1111V?$complex@N@2@2@Z
	??$cpu_statevector_anyCtrlPauliTensorOrGadget_subA@$04$02@@YAXUQureg@@V?$vector@HV?$allocator@H@std@@@std@@1111V?$complex@N@2@2@Z
	??$cpu_statevector_anyCtrlPauliTensorOrGadget_subA@$04$03@@YAXUQureg@@V?$vector@HV?$allocator@H@std@@@std@@1111V?$complex@N@2@2@Z
	??$cpu_statevector_anyCtrlPauliTensorOrGadget_subA@$04$04@@YAXUQureg@@V?$vector@HV?$allocator@H@std@@@std@@1111V?$complex@N@2@2@Z
	??$cpu_statevector_anyCtrlPauliTensorOrGadget_subA@$04$0?0@@YAXUQureg@@V?$vector@HV?$allocator@H@std@@@std@@1111V?$complex@N@2@2@Z
	??$cpu_statevector_anyCtrlPauliTensorOrGadget_subA@$04$0A@@@YAXUQureg@@V?$vector@HV?$allocator@H@std@@@std@@1111V?$complex@N@2@2@Z
	??$cpu_statevector_anyCtrlPauliTensorOrGadget_subA@$0?0$00@@YAXUQureg@@V?$vector@HV?$allocator@H@std@@@std@@1111V?$complex@N@2@2@Z
	??$cpu_statevector_anyCtrlPauliTensorOrGadget_subA@$0?0$01@@YAXUQureg@@V?$vector@HV?$allocator@H@std@@@std@@1111V?$complex@N@2@2@Z
	??$cpu_statevector_anyCtrlPauliTensorOrGadget_subA@$0?0$02@@YAXUQureg@@V?$vector@HV?$allocator@H@std@@@std@@1111V?$complex@N@2@2@Z
	??$cpu_statevector_anyCtrlPauliTensorOrGadget_subA@$0?0$03@@YAXUQureg@@V?$vector@HV?$allocator@H@std@@@std@@1111V?$complex@N@2@2@Z
	??$cpu_statevector_anyCtrlPauliTensorOrGadget_subA@$0?0$04@@YAXUQureg@@V?$vector@HV?$allocator@H@std@@@std@@1111V?$complex@N@2@2@Z
	??$cpu_statevector_anyCtrlPauliTensorOrGadget_subA@$0?0$0?0@@YAXUQureg@@V?$vector@HV?$allocator@H@std@@@std@@1111V?$complex@N@2@2@Z
	??$cpu_statevector_anyCtrlPauliTensorOrGadget_subA@$0?0$0A@@@YAXUQureg@@V?$vector@HV?$allocator@H@std@@@std@@1111V?$complex@N@2@2@Z
	??$cpu_statevector_anyCtrlPauliTensorOrGadget_subA@$0A@$00@@YAXUQureg@@V?$vector@HV?$allocator@H@std@@@std@@1111V?$complex@N@2@2@Z
	??$cpu_statevector_anyCtrlPauliTensorOrGadget_subA@$0A@$01@@YAXUQureg@@V?$vector@HV?$allocator@H@std@@@std@@1111V?$complex@N@2@2@Z
	??$cpu_statevector_anyCtrlPauliTensorOrGadget_subA@$0A@$02@@YAXUQureg@@V?$vector@HV?$allocator@H@std@@@std@@1111V?$complex@N@2@2@Z
	??$cpu_statevector_anyCtrlPauliTensorOrGadget_subA@$0A@$03@@YAXUQureg@@V?$vector@HV?$allocator@H@std@@@std@@1111V?$complex@N@2@2@Z
	??$cpu_statevector_anyCtrlPauliTensorOrGadget_subA@$0A@$04@@YAXUQureg@@V?$vector@HV?$allocator@H@std@@@std@@1111V?$complex@N@2@2@Z
	??$cpu_statevector_anyCtrlPauliTensorOrGadget_subA@$0A@$0?0@@YAXUQureg@@V?$vector@HV?$allocator@H@std@@@std@@1111V?$complex@N@2@2@Z
	??$cpu_statevector_anyCtrlPauliTensorOrGadget_subA@$0A@$0A@@@YAXUQureg@@V?$vector@HV?$allocator@H@std@@@std@@1111V?$complex@N@2@2@Z
	??$cpu_statevector_anyCtrlPauliTensorOrGadget_subB@$00@@YAXUQureg@@V?$vector@HV?$allocator@H@std@@@std@@1111V?$complex@N@2@2_J@Z
	??$cpu_statevector_anyCtrlPauliTensorOrGadget_subB@$01@@YAXUQureg@@V?$vector@HV?$allocator@H@std@@@std@@1111V?$complex@N@2@2_J@Z
	??$cpu_statevector_anyCtrlPauliTensorOrGadget_subB@$02@@YAXUQureg@@V?$vector@HV?$allocator@H@std@@@std@@1111V?$complex@N@2@2_J@Z
	??$cpu_statevector_anyCtrlPauliTensorOrGadget_subB@$03@@YAXUQureg@@V?$vector@HV?$allocator@H@std@@@std@@1111V?$complex@N@2@2_J@Z
	??$cpu_statevector_anyCtrlPauliTensorOrGadget_subB@$04@@YAXUQureg@@V?$vector@HV?$allocator@H@std@@@std@@1111V?$complex@N@2@2_J@Z
	??$cpu_statevector_anyCtrlPauliTensorOrGadget_subB@$0?0@@YAXUQureg@@V?$vector@HV?$allocator@H@std@@@std@@1111V?$complex@N@2@2_J@Z
	??$cpu_statevector_anyCtrlPauliTensorOrGadget_subB@$0A@@@YAXUQureg@@V?$vector@HV?$allocator@H@std@@@std@@1111V?$complex@N@2@2_J@Z
	??$didAnyLocalAllocsFail@UCompMatr@@@@YA_NUCompMatr@@@Z
	??$didAnyLocalAllocsFail@UDiagMatr@@@@YA_NUDiagMatr@@@Z
	??$didAnyLocalAllocsFail@UFullStateDiagMatr@@@@YA_NUFullStateDiagMatr@@@Z
	??$endl@DU?$char_traits@D@std@@@std@@YAAEAV?$basic_ostream@DU?$char_traits@D@std@@@0@AEAV10@@Z
	??$exp@N@std@@YA?AV?$complex@N@0@AEBV10@@Z
	??$fill@PEAV?$_List_unchecked_iterator@V?$_List_val@U?$_List_simple_types@U?$pair@$$CBHH@std@@@std@@@std@@@std@@V12@@std@@YAXQEAV?$_List_unchecked_iterator@V?$_List_val@U?$_List_simple_types@U?$pair@$$CBHH@std@@@std@@@std@@@0@0AEBV10@@Z
	??$fill@PEAV?$_List_unchecked_iterator@V?$_List_val@U?$_List_simple_types@U?$pair@$$CB_KV?$vector@V?$tuple@UPauliStr@@V?$complex@N@std@@@std@@V?$allocator@V?$tuple@UPauliStr@@V?$complex@N@std@@@std@@@2@@std@@@std@@@std@@@std@@@std@@V12@@std@@YAXQEAV?$_List_unchecked_iterator@V?$_List_val@U?$_List_simple_types@U?$pair@$$CB_KV?$vector@V?$tuple@UPauliStr@@V?$complex@N@std@@@std@@V?$allocator@V?$tuple@UPauliStr@@V?$complex@N@std@@@std@@@2@@std@@@std@@@std@@@std@@@0@0AEBV10@@Z
	??$floatToStr@H@@YA?AV?$basic_string@DU?$char_traits@D@std@@V?$allocator@D@2@@std@@H_NH@Z
	??$floatToStr@I@@YA?AV?$basic_string@DU?$char_traits@D@std@@V?$allocator@D@2@@std@@I_NH@Z
	??$floatToStr@J@@YA?AV?$basic_string@DU?$char_traits@D@std@@V?$allocator@D@2@@std@@J_NH@Z
	??$floatToStr@K@@YA?AV?$basic_string@DU?$char_traits@D@std@@V?$allocator@D@2@@std@@K_NH@Z
	??$floatToStr@M@@YA?AV?$basic_string@DU?$char_traits@D@std@@V?$allocator@D@2@@std@@M_NH@Z
	??$floatToStr@N@@YA?AV?$basic_string@DU?$char_traits@D@std@@V?$allocator@D@2@@std@@N_NH@Z
	??$floatToStr@O@@YA?AV?$basic_string@DU?$char_traits@D@std@@V?$allocator@D@2@@std@@O_NH@Z
	??$floatToStr@_J@@YA?AV?$basic_string@DU?$char_traits@D@std@@V?$allocator@D@2@@std@@_J_NH@Z
	??$floatToStr@_K@@YA?AV?$basic_string@DU?$char_traits@D@std@@V?$allocator@D@2@@std@@_K_NH@Z
	??$freeAllMemoryIfAnyAllocsFailed@UCompMatr@@@@YAXUCompMatr@@@Z
	??$freeAllMemoryIfAnyAllocsFailed@UDiagMatr@@@@YAXUDiagMatr@@@Z
	??$freeAllMemoryIfAnyAllocsFailed@UFullStateDiagMatr@@@@YAXUFullStateDiagMatr@@@Z
	??$freeAllMemoryIfAnyAllocsFailed@UKrausMap@@@@YAXAEAUKrausMap@@@Z
	??$freeAllMemoryIfAnyAllocsFailed@USuperOp@@@@YAXAEAUSuperOp@@@Z
	??$freeHeapMatrix@UCompMatr@@@@YAXUCompMatr@@@Z
	??$freeHeapMatrix@UDiagMatr@@@@YAXUDiagMatr@@@Z
	??$freeHeapMatrix@UFullStateDiagMatr@@@@YAXUFullStateDiagMatr@@@Z
	??$generate@PEAK@seed_seq@std@@QEBAXPEAK0@Z
	??$generate_canonical@N$0DF@V?$mersenne_twister_engine@_K$0EA@$0BDI@$0JM@$0BP@$0?EKPNJAKFFGJJOGBH@$0BN@$0FFFFFFFFFFFFFFFF@$0BB@$0HBNGHPPPONKGAAAA@$0CF@$0?IBBCAAAAAAAAA@$0CL@$0FIFBPECNEMJFHPCN@@std@@@std@@YANAEAV?$mersenne_twister_engine@_K$0EA@$0BDI@$0JM@$0BP@$0?EKPNJAKFFGJJOGBH@$0BN@$0FFFFFFFFFFFFFFFF@$0BB@$0HBNGHPPPONKGAAAA@$0CF@$0?IBBCAAAAAAAAA@$0CL@$0FIFBPECNEMJFHPCN@@0@@Z
	??$getHermiticity@PEAPEAV?$complex@N@std@@@@YA_NPEAPEAV?$complex@N@std@@_JN@Z
	??$getHermiticity@PEAY01V?$complex@N@std@@@@YA_NPEAY01V?$complex@N@std@@_JN@Z
	??$getHermiticity@PEAY03V?$complex@N@std@@@@YA_NPEAY03V?$complex@N@std@@_JN@Z
	??$getTypeName@V?$complex@N@std@@@@YA?AV?$basic_string@DU?$char_traits@D@std@@V?$allocator@D@2@@std@@V?$complex@N@1@@Z
	??$getUnitarity@PEAPEAV?$complex@N@std@@@@YA_NPEAPEAV?$complex@N@std@@_JN@Z
	??$getUnitarity@PEAY01V?$complex@N@std@@@@YA_NPEAY01V?$complex@N@std@@_JN@Z
	??$getUnitarity@PEAY03V?$complex@N@std@@@@YA_NPEAY03V?$complex@N@std@@_JN@Z
	??$getline@DU?$char_traits@D@std@@V?$allocator@D@2@@std@@YAAEAV?$basic_istream@DU?$char_traits@D@std@@@0@$$QEAV10@AEAV?$basic_string@DU?$char_traits@D@std@@V?$allocator@D@2@@0@D@Z
	??$getline@DU?$char_traits@D@std@@V?$allocator@D@2@@std@@YAAEAV?$basic_istream@DU?$char_traits@D@std@@@0@AEAV10@AEAV?$basic_string@DU?$char_traits@D@std@@V?$allocator@D@2@@0@@Z
	??$gpu_densmatr_allTargDiagMatr_sub@$00$00@@YAXUQureg@@UFullStateDiagMatr@@V?$complex@N@std@@@Z
	??$gpu_densmatr_allTargDiagMatr_sub@$00$0A@@@YAXUQureg@@UFullStateDiagMatr@@V?$complex@N@std@@@Z
	??$gpu_densmatr_allTargDiagMatr_sub@$0A@$00@@YAXUQureg@@UFullStateDiagMatr@@V?$complex@N@std@@@Z
	??$gpu_densmatr_allTargDiagMatr_sub@$0A@$0A@@@YAXUQureg@@UFullStateDiagMatr@@V?$complex@N@std@@@Z
	??$gpu_densmatr_calcExpecFullStateDiagMatr_sub@$00$00@@YA?AV?$complex@N@std@@UQureg@@UFullStateDiagMatr@@V01@@Z
	??$gpu_densmatr_calcExpecFullStateDiagMatr_sub@$00$0A@@@YA?AV?$complex@N@std@@UQureg@@UFullStateDiagMatr@@V01@@Z
	??$gpu_densmatr_calcExpecFullStateDiagMatr_sub@$0A@$00@@YA?AV?$complex@N@std@@UQureg@@UFullStateDiagMatr@@V01@@Z
	??$gpu_densmatr_calcExpecFullStateDiagMatr_sub@$0A@$0A@@@YA?AV?$complex@N@std@@UQureg@@UFullStateDiagMatr@@V01@@Z
	??$gpu_densmatr_calcFidelityWithPureState_sub@$00@@YA?AV?$complex@N@std@@UQureg@@0@Z
	??$gpu_densmatr_calcFidelityWithPureState_sub@$0A@@@YA?AV?$complex@N@std@@UQureg@@0@Z
	??$gpu_densmatr_calcProbOfMultiQubitOutcome_sub@$00@@YANUQureg@@V?$vector@HV?$allocator@H@std@@@std@@1@Z
	??$gpu_densmatr_calcProbOfMultiQubitOutcome_sub@$01@@YANUQureg@@V?$vector@HV?$allocator@H@std@@@std@@1@Z
	??$gpu_densmatr_calcProbOfMultiQubitOutcome_sub@$02@@YANUQureg@@V?$vector@HV?$allocator@H@std@@@std@@1@Z
	??$gpu_densmatr_calcProbOfMultiQubitOutcome_sub@$03@@YANUQureg@@V?$vector@HV?$allocator@H@std@@@std@@1@Z
	??$gpu_densmatr_calcProbOfMultiQubitOutcome_sub@$04@@YANUQureg@@V?$vector@HV?$allocator@H@std@@@std@@1@Z
	??$gpu_densmatr_calcProbOfMultiQubitOutcome_sub@$0?0@@YANUQureg@@V?$vector@HV?$allocator@H@std@@@std@@1@Z
	??$gpu_densmatr_calcProbOfMultiQubitOutcome_sub@$0A@@@YANUQureg@@V?$vector@HV?$allocator@H@std@@@std@@1@Z
	??$gpu_densmatr_calcProbsOfAllMultiQubitOutcomes_sub@$00@@YAXPEANUQureg@@V?$vector@HV?$allocator@H@std@@@std@@@Z
	??$gpu_densmatr_calcProbsOfAllMultiQubitOutcomes_sub@$01@@YAXPEANUQureg@@V?$vector@HV?$allocator@H@std@@@std@@@Z
	??$gpu_densmatr_calcProbsOfAllMultiQubitOutcomes_sub@$02@@YAXPEANUQureg@@V?$vector@HV?$allocator@H@std@@@std@@@Z
	??$gpu_densmatr_calcProbsOfAllMultiQubitOutcomes_sub@$03@@YAXPEANUQureg@@V?$vector@HV?$allocator@H@std@@@std@@@Z
	??$gpu_densmatr_calcProbsOfAllMultiQubitOutcomes_sub@$04@@YAXPEANUQureg@@V?$vector@HV?$allocator@H@std@@@std@@@Z
	??$gpu_densmatr_calcProbsOfAllMultiQubitOutcomes_sub@$0?0@@YAXPEANUQureg@@V?$vector@HV?$allocator@H@std@@@std@@@Z
	??$gpu_densmatr_calcProbsOfAllMultiQubitOutcomes_sub@$0A@@@YAXPEANUQureg@@V?$vector@HV?$allocator@H@std@@@std@@@Z
	??$gpu_densmatr_multiQubitProjector_sub@$00@@YAXUQureg@@V?$vector@HV?$allocator@H@std@@@std@@1N@Z
	??$gpu_densmatr_multiQubitProjector_sub@$01@@YAXUQureg@@V?$vector@HV?$allocator@H@std@@@std@@1N@Z
	??$gpu_densmatr_multiQubitProjector_sub@$02@@YAXUQureg@@V?$vector@HV?$allocator@H@std@@@std@@1N@Z
	??$gpu_densmatr_multiQubitProjector_sub@$03@@YAXUQureg@@V?$vector@HV?$allocator@H@std@@@std@@1N@Z
	??$gpu_densmatr_multiQubitProjector_sub@$04@@YAXUQureg@@V?$vector@HV?$allocator@H@std@@@std@@1N@Z
	??$gpu_densmatr_multiQubitProjector_sub@$0?0@@YAXUQureg@@V?$vector@HV?$allocator@H@std@@@std@@1N@Z
	??$gpu_densmatr_multiQubitProjector_sub@$0A@@@YAXUQureg@@V?$vector@HV?$allocator@H@std@@@std@@1N@Z
	??$gpu_densmatr_partialTrace_sub@$00@@YAXUQureg@@0V?$vector@HV?$allocator@H@std@@@std@@1@Z
	??$gpu_densmatr_partialTrace_sub@$01@@YAXUQureg@@0V?$vector@HV?$allocator@H@std@@@std@@1@Z
	??$gpu_densmatr_partialTrace_sub@$02@@YAXUQureg@@0V?$vector@HV?$allocator@H@std@@@std@@1@Z
	??$gpu_densmatr_partialTrace_sub@$03@@YAXUQureg@@0V?$vector@HV?$allocator@H@std@@@std@@1@Z
	??$gpu_densmatr_partialTrace_sub@$04@@YAXUQureg@@0V?$vector@HV?$allocator@H@std@@@std@@1@Z
	??$gpu_densmatr_partialTrace_sub@$0?0@@YAXUQureg@@0V?$vector@HV?$allocator@H@std@@@std@@1@Z
	??$gpu_densmatr_partialTrace_sub@$0A@@@YAXUQureg@@0V?$vector@HV?$allocator@H@std@@@std@@1@Z
	??$gpu_statevec_allTargDiagMatr_sub@$00@@YAXUQureg@@UFullStateDiagMatr@@V?$complex@N@std@@@Z
	??$gpu_statevec_allTargDiagMatr_sub@$0A@@@YAXUQureg@@UFullStateDiagMatr@@V?$complex@N@std@@@Z
	??$gpu_statevec_anyCtrlAnyTargDenseMatr_sub@$00$00$00@@YAXUQureg@@V?$vector@HV?$allocator@H@std@@@std@@11UCompMatr@@@Z
	??$gpu_statevec_anyCtrlAnyTargDenseMatr_sub@$00$00$0A@@@YAXUQureg@@V?$vector@HV?$allocator@H@std@@@std@@11UCompMatr@@@Z
	??$gpu_statevec_anyCtrlAnyTargDenseMatr_sub@$00$01$00@@YAXUQureg@@V?$vector@HV?$allocator@H@std@@@std@@11UCompMatr@@@Z
	??$gpu_statevec_anyCtrlAnyTargDenseMatr_sub@$00$01$0A@@@YAXUQureg@@V?$vector@HV?$allocator@H@std@@@std@@11UCompMatr@@@Z
	??$gpu_statevec_anyCtrlAnyTargDenseMatr_sub@$00$02$00@@YAXUQureg@@V?$vector@HV?$allocator@H@std@@@std@@11UCompMatr@@@Z
	??$gpu_statevec_anyCtrlAnyTargDenseMatr_sub@$00$02$0A@@@YAXUQureg@@V?$vector@HV?$allocator@H@std@@@std@@11UCompMatr@@@Z
	??$gpu_statevec_anyCtrlAnyTargDenseMatr_sub@$00$03$00@@YAXUQureg@@V?$vector@HV?$allocator@H@std@@@std@@11UCompMatr@@@Z
	??$gpu_statevec_anyCtrlAnyTargDenseMatr_sub@$00$03$0A@@@YAXUQureg@@V?$vector@HV?$allocator@H@std@@@std@@11UCompMatr@@@Z
	??$gpu_statevec_anyCtrlAnyTargDenseMatr_sub@$00$04$00@@YAXUQureg@@V?$vector@HV?$allocator@H@std@@@std@@11UCompMatr@@@Z
	??$gpu_statevec_anyCtrlAnyTargDenseMatr_sub@$00$04$0A@@@YAXUQureg@@V?$vector@HV?$allocator@H@std@@@std@@11UCompMatr@@@Z
	??$gpu_statevec_anyCtrlAnyTargDenseMatr_sub@$00$0?0$00@@YAXUQureg@@V?$vector@HV?$allocator@H@std@@@std@@11UCompMatr@@@Z
	??$gpu_statevec_anyCtrlAnyTargDenseMatr_sub@$00$0?0$0A@@@YAXUQureg@@V?$vector@HV?$allocator@H@std@@@std@@11UCompMatr@@@Z
	??$gpu_statevec_anyCtrlAnyTargDenseMatr_sub@$00$0A@$00@@YAXUQureg@@V?$vector@HV?$allocator@H@std@@@std@@11UCompMatr@@@Z
	??$gpu_statevec_anyCtrlAnyTargDenseMatr_sub@$00$0A@$0A@@@YAXUQureg@@V?$vector@HV?$allocator@H@std@@@std@@11UCompMatr@@@Z
	??$gpu_statevec_anyCtrlAnyTargDenseMatr_sub@$01$00$00@@YAXUQureg@@V?$vector@HV?$allocator@H@std@@@std@@11UCompMatr@@@Z
	??$gpu_statevec_anyCtrlAnyTargDenseMatr_sub@$01$00$0A@@@YAXUQureg@@V?$vector@HV?$allocator@H@std@@@std@@11UCompMatr@@@Z
	??$gpu_statevec_anyCtrlAnyTargDenseMatr_sub@$01$01$00@@YAXUQureg@@V?$vector@HV?$allocator@H@std@@@std@@11UCompMatr@@@Z
	??$gpu_statevec_anyCtrlAnyTargDenseMatr_sub@$01$01$0A@@@YAXUQureg@@V?$vector@HV?$allocator@H@std@@@std@@11UCompMatr@@@Z
	??$gpu_statevec_anyCtrlAnyTargDenseMatr_sub@$01$02$00@@YAXUQureg@@V?$vector@HV?$allocator@H@std@@@std@@11UCompMatr@@@Z
	??$gpu_statevec_anyCtrlAnyTargDenseMatr_sub@$01$02$0A@@@YAXUQureg@@V?$vector@HV?$allocator@H@std@@@std@@11UCompMatr@@@Z
	??$gpu_statevec_anyCtrlAnyTargDenseMatr_sub@$01$03$00@@YAXUQureg@@V?$vector@HV?$allocator@H@std@@@std@@11UCompMatr@@@Z
	??$gpu_statevec_anyCtrlAnyTargDenseMatr_sub@$01$03$0A@@@YAXUQureg@@V?$vector@HV?$allocator@H@std@@@std@@11UCompMatr@@@Z
	??$gpu_statevec_anyCtrlAnyTargDenseMatr_sub@$01$04$00@@YAXUQureg@@V?$vector@HV?$allocator@H@std@@@std@@11UCompMatr@@@Z
	??$gpu_statevec_anyCtrlAnyTargDenseMatr_sub@$01$04$0A@@@YAXUQureg@@V?$vector@HV?$allocator@H@std@@@std@@11UCompMatr@@@Z
	??$gpu_statevec_anyCtrlAnyTargDenseMatr_sub@$01$0?0$00@@YAXUQureg@@V?$vector@HV?$allocator@H@std@@@std@@11UCompMatr@@@Z
	??$gpu_statevec_anyCtrlAnyTargDenseMatr_sub@$01$0?0$0A@@@YAXUQureg@@V?$vector@HV?$allocator@H@std@@@std@@11UCompMatr@@@Z
	??$gpu_statevec_anyCtrlAnyTargDenseMatr_sub@$01$0A@$00@@YAXUQureg@@V?$vector@HV?$allocator@H@std@@@std@@11UCompMatr@@@Z
	??$gpu_statevec_anyCtrlAnyTargDenseMatr_sub@$01$0A@$0A@@@YAXUQureg@@V?$vector@HV?$allocator@H@std@@@std@@11UCompMatr@@@Z
	??$gpu_statevec_anyCtrlAnyTargDenseMatr_sub@$02$00$00@@YAXUQureg@@V?$vector@HV?$allocator@H@std@@@std@@11UCompMatr@@@Z
	??$gpu_statevec_anyCtrlAnyTargDenseMatr_sub@$02$00$0A@@@YAXUQureg@@V?$vector@HV?$allocator@H@std@@@std@@11UCompMatr@@@Z
	??$gpu_statevec_anyCtrlAnyTargDenseMatr_sub@$02$01$00@@YAXUQureg@@V?$vector@HV?$allocator@H@std@@@std@@11UCompMatr@@@Z
	??$gpu_statevec_anyCtrlAnyTargDenseMatr_sub@$02$01$0A@@@YAXUQureg@@V?$vector@HV?$allocator@H@std@@@std@@11UCompMatr@@@Z
	??$gpu_statevec_anyCtrlAnyTargDenseMatr_sub@$02$02$00@@YAXUQureg@@V?$vector@HV?$allocator@H@std@@@std@@11UCompMatr@@@Z
	??$gpu_statevec_anyCtrlAnyTargDenseMatr_sub@$02$02$0A@@@YAXUQureg@@V?$vector@HV?$allocator@H@std@@@std@@11UCompMatr@@@Z
	??$gpu_statevec_anyCtrlAnyTargDenseMatr_sub@$02$03$00@@YAXUQureg@@V?$vector@HV?$allocator@H@std@@@std@@11UCompMatr@@@Z
	??$gpu_statevec_anyCtrlAnyTargDenseMatr_sub@$02$03$0A@@@YAXUQureg@@V?$vector@HV?$allocator@H@std@@@std@@11UCompMatr@@@Z
	??$gpu_statevec_anyCtrlAnyTargDenseMatr_sub@$02$04$00@@YAXUQureg@@V?$vector@HV?$allocator@H@std@@@std@@11UCompMatr@@@Z
	??$gpu_statevec_anyCtrlAnyTargDenseMatr_sub@$02$04$0A@@@YAXUQureg@@V?$vector@HV?$allocator@H@std@@@std@@11UCompMatr@@@Z
	??$gpu_statevec_anyCtrlAnyTargDenseMatr_sub@$02$0?0$00@@YAXUQureg@@V?$vector@HV?$allocator@H@std@@@std@@11UCompMatr@@@Z
	??$gpu_statevec_anyCtrlAnyTargDenseMatr_sub@$02$0?0$0A@@@YAXUQureg@@V?$vector@HV?$allocator@H@std@@@std@@11UCompMatr@@@Z
	??$gpu_statevec_anyCtrlAnyTargDenseMatr_sub@$02$0A@$00@@YAXUQureg@@V?$vector@HV?$allocator@H@std@@@std@@11UCompMatr@@@Z
	??$gpu_statevec_anyCtrlAnyTargDenseMatr_sub@$02$0A@$0A@@@YAXUQureg@@V?$vector@HV?$allocator@H@std@@@std@@11UCompMatr@@@Z
	??$gpu_statevec_anyCtrlAnyTargDenseMatr_sub@$03$00$00@@YAXUQureg@@V?$vector@HV?$allocator@H@std@@@std@@11UCompMatr@@@Z
	??$gpu_statevec_anyCtrlAnyTargDenseMatr_sub@$03$00$0A@@@YAXUQureg@@V?$vector@HV?$allocator@H@std@@@std@@11UCompMatr@@@Z
	??$gpu_statevec_anyCtrlAnyTargDenseMatr_sub@$03$01$00@@YAXUQureg@@V?$vector@HV?$allocator@H@std@@@std@@11UCompMatr@@@Z
	??$gpu_statevec_anyCtrlAnyTargDenseMatr_sub@$03$01$0A@@@YAXUQureg@@V?$vector@HV?$allocator@H@std@@@std@@11UCompMatr@@@Z
	??$gpu_statevec_anyCtrlAnyTargDenseMatr_sub@$03$02$00@@YAXUQureg@@V?$vector@HV?$allocator@H@std@@@std@@11UCompMatr@@@Z
	??$gpu_statevec_anyCtrlAnyTargDenseMatr_sub@$03$02$0A@@@YAXUQureg@@V?$vector@HV?$allocator@H@std@@@std@@11UCompMatr@@@Z
	??$gpu_statevec_anyCtrlAnyTargDenseMatr_sub@$03$03$00@@YAXUQureg@@V?$vector@HV?$allocator@H@std@@@std@@11UCompMatr@@@Z
	??$gpu_statevec_anyCtrlAnyTargDenseMatr_sub@$03$03$0A@@@YAXUQureg@@V?$vector@HV?$allocator@H@std@@@std@@11UCompMatr@@@Z
	??$gpu_statevec_anyCtrlAnyTargDenseMatr_sub@$03$04$00@@YAXUQureg@@V?$vector@HV?$allocator@H@std@@@std@@11UCompMatr@@@Z
	??$gpu_statevec_anyCtrlAnyTargDenseMatr_sub@$03$04$0A@@@YAXUQureg@@V?$vector@HV?$allocator@H@std@@@std@@11UCompMatr@@@Z
	??$gpu_statevec_anyCtrlAnyTargDenseMatr_sub@$03$0?0$00@@YAXUQureg@@V?$vector@HV?$allocator@H@std@@@std@@11UCompMatr@@@Z
	??$gpu_statevec_anyCtrlAnyTargDenseMatr_sub@$03$0?0$0A@@@YAXUQureg@@V?$vector@HV?$allocator@H@std@@@std@@11UCompMatr@@@Z
	??$gpu_statevec_anyCtrlAnyTargDenseMatr_sub@$03$0A@$00@@YAXUQureg@@V?$vector@HV?$allocator@H@std@@@std@@11UCompMatr@@@Z
	??$gpu_statevec_anyCtrlAnyTargDenseMatr_sub@$03$0A@$0A@@@YAXUQureg@@V?$vector@HV?$allocator@H@std@@@std@@11UCompMatr@@@Z
	??$gpu_statevec_anyCtrlAnyTargDenseMatr_sub@$04$00$00@@YAXUQureg@@V?$vector@HV?$allocator@H@std@@@std@@11UCompMatr@@@Z
	??$gpu_statevec_anyCtrlAnyTargDenseMatr_sub@$04$00$0A@@@YAXUQureg@@V?$vector@HV?$allocator@H@std@@@std@@11UCompMatr@@@Z
	??$gpu_statevec_anyCtrlAnyTargDenseMatr_sub@$04$01$00@@YAXUQureg@@V?$vector@HV?$allocator@H@std@@@std@@11UCompMatr@@@Z
	??$gpu_statevec_anyCtrlAnyTargDenseMatr_sub@$04$01$0A@@@YAXUQureg@@V?$vector@HV?$allocator@H@std@@@std@@11UCompMatr@@@Z
	??$gpu_statevec_anyCtrlAnyTargDenseMatr_sub@$04$02$00@@YAXUQureg@@V?$vector@HV?$allocator@H@std@@@std@@11UCompMatr@@@Z
	??$gpu_statevec_anyCtrlAnyTargDenseMatr_sub@$04$02$0A@@@YAXUQureg@@V?$vector@HV?$allocator@H@std@@@std@@11UCompMatr@@@Z
	??$gpu_statevec_anyCtrlAnyTargDenseMatr_sub@$04$03$00@@YAXUQureg@@V?$vector@HV?$allocator@H@std@@@std@@11UCompMatr@@@Z
	??$gpu_statevec_anyCtrlAnyTargDenseMatr_sub@$04$03$0A@@@YAXUQureg@@V?$vector@HV?$allocator@H@std@@@std@@11UCompMatr@@@Z
	??$gpu_statevec_anyCtrlAnyTargDenseMatr_sub@$04$04$00@@YAXUQureg@@V?$vector@HV?$allocator@H@std@@@std@@11UCompMatr@@@Z
	??$gpu_statevec_anyCtrlAnyTargDenseMatr_sub@$04$04$0A@@@YAXUQureg@@V?$vector@HV?$allocator@H@std@@@std@@11UCompMatr@@@Z
	??$gpu_statevec_anyCtrlAnyTargDenseMatr_sub@$04$0?0$00@@YAXUQureg@@V?$vector@HV?$allocator@H@std@@@std@@11UCompMatr@@@Z
	??$gpu_statevec_anyCtrlAnyTargDenseMatr_sub@$04$0?0$0A@@@YAXUQureg@@V?$vector@HV?$allocator@H@std@@@std@@11UCompMatr@@@Z
	??$gpu_statevec_anyCtrlAnyTargDenseMatr_sub@$04$0A@$00@@YAXUQureg@@V?$vector@HV?$allocator@H@std@@@std@@11UCompMatr@@@Z
	??$gpu_statevec_anyCtrlAnyTargDenseMatr_sub@$04$0A@$0A@@@YAXUQureg@@V?$vector@HV?$allocator@H@std@@@std@@11UCompMatr@@@Z
	??$gpu_statevec_anyCtrlAnyTargDenseMatr_sub@$0?0$00$00@@YAXUQureg@@V?$vector@HV?$allocator@H@std@@@std@@11UCompMatr@@@Z
	??$gpu_statevec_anyCtrlAnyTargDenseMatr_sub@$0?0$00$0A@@@YAXUQureg@@V?$vector@HV?$allocator@H@std@@@std@@11UCompMatr@@@Z
	??$gpu_statevec_anyCtrlAnyTargDenseMatr_sub@$0?0$01$00@@YAXUQureg@@V?$vector@HV?$allocator@H@std@@@std@@11UCompMatr@@@Z
	??$gpu_statevec_anyCtrlAnyTargDenseMatr_sub@$0?0$01$0A@@@YAXUQureg@@V?$vector@HV?$allocator@H@std@@@std@@11UCompMatr@@@Z
	??$gpu_statevec_anyCtrlAnyTargDenseMatr_sub@$0?0$02$00@@YAXUQureg@@V?$vector@HV?$allocator@H@std@@@std@@11UCompMatr@@@Z
	??$gpu_statevec_anyCtrlAnyTargDenseMatr_sub@$0?0$02$0A@@@YAXUQureg@@V?$vector@HV?$allocator@H@std@@@std@@11UCompMatr@@@Z
	??$gpu_statevec_anyCtrlAnyTargDenseMatr_sub@$0?0$03$00@@YAXUQureg@@V?$vector@HV?$allocator@H@std@@@std@@11UCompMatr@@@Z
	??$gpu_statevec_anyCtrlAnyTargDenseMatr_sub@$0?0$03$0A@@@YAXUQureg@@V?$vector@HV?$allocator@H@std@@@std@@11UCompMatr@@@Z
	??$gpu_statevec_anyCtrlAnyTargDenseMatr_sub@$0?0$04$00@@YAXUQureg@@V?$vector@HV?$allocator@H@std@@@std@@11UCompMatr@@@Z
	??$gpu_statevec_anyCtrlAnyTargDenseMatr_sub@$0?0$04$0A@@@YAXUQureg@@V?$vector@HV?$allocator@H@std@@@std@@11UCompMatr@@@Z
	??$gpu_statevec_anyCtrlAnyTargDenseMatr_sub@$0?0$0?0$00@@YAXUQureg@@V?$vector@HV?$allocator@H@std@@@std@@11UCompMatr@@@Z
	??$gpu_statevec_anyCtrlAnyTargDenseMatr_sub@$0?0$0?0$0A@@@YAXUQureg@@V?$vector@HV?$allocator@H@std@@@std@@11UCompMatr@@@Z
	??$gpu_statevec_anyCtrlAnyTargDenseMatr_sub@$0?0$0A@$00@@YAXUQureg@@V?$vector@HV?$allocator@H@std@@@std@@11UCompMatr@@@Z
	??$gpu_statevec_anyCtrlAnyTargDenseMatr_sub@$0?0$0A@$0A@@@YAXUQureg@@V?$vector@HV?$allocator@H@std@@@std@@11UCompMatr@@@Z
	??$gpu_statevec_anyCtrlAnyTargDenseMatr_sub@$0A@$00$00@@YAXUQureg@@V?$vector@HV?$allocator@H@std@@@std@@11UCompMatr@@@Z
	??$gpu_statevec_anyCtrlAnyTargDenseMatr_sub@$0A@$00$0A@@@YAXUQureg@@V?$vector@HV?$allocator@H@std@@@std@@11UCompMatr@@@Z
	??$gpu_statevec_anyCtrlAnyTargDenseMatr_sub@$0A@$01$00@@YAXUQureg@@V?$vector@HV?$allocator@H@std@@@std@@11UCompMatr@@@Z
	??$gpu_statevec_anyCtrlAnyTargDenseMatr_sub@$0A@$01$0A@@@YAXUQureg@@V?$vector@HV?$allocator@H@std@@@std@@11UCompMatr@@@Z
	??$gpu_statevec_anyCtrlAnyTargDenseMatr_sub@$0A@$02$00@@YAXUQureg@@V?$vector@HV?$allocator@H@std@@@std@@11UCompMatr@@@Z
	??$gpu_statevec_anyCtrlAnyTargDenseMatr_sub@$0A@$02$0A@@@YAXUQureg@@V?$vector@HV?$allocator@H@std@@@std@@11UCompMatr@@@Z
	??$gpu_statevec_anyCtrlAnyTargDenseMatr_sub@$0A@$03$00@@YAXUQureg@@V?$vector@HV?$allocator@H@std@@@std@@11UCompMatr@@@Z
	??$gpu_statevec_anyCtrlAnyTargDenseMatr_sub@$0A@$03$0A@@@YAXUQureg@@V?$vector@HV?$allocator@H@std@@@std@@11UCompMatr@@@Z
	??$gpu_statevec_anyCtrlAnyTargDenseMatr_sub@$0A@$04$00@@YAXUQureg@@V?$vector@HV?$allocator@H@std@@@std@@11UCompMatr@@@Z
	??$gpu_statevec_anyCtrlAnyTargDenseMatr_sub@$0A@$04$0A@@@YAXUQureg@@V?$vector@HV?$allocator@H@std@@@std@@11UCompMatr@@@Z
	??$gpu_statevec_anyCtrlAnyTargDenseMatr_sub@$0A@$0?0$00@@YAXUQureg@@V?$vector@HV?$allocator@H@std@@@std@@11UCompMatr@@@Z
	??$gpu_statevec_anyCtrlAnyTargDenseMatr_sub@$0A@$0?0$0A@@@YAXUQureg@@V?$vector@HV?$allocator@H@std@@@std@@11UCompMatr@@@Z
	??$gpu_statevec_anyCtrlAnyTargDenseMatr_sub@$0A@$0A@$00@@YAXUQureg@@V?$vector@HV?$allocator@H@std@@@std@@11UCompMatr@@@Z
	??$gpu_statevec_anyCtrlAnyTargDenseMatr_sub@$0A@$0A@$0A@@@YAXUQureg@@V?$vector@HV?$allocator@H@std@@@std@@11UCompMatr@@@Z
	??$gpu_statevec_anyCtrlAnyTargDiagMatr_sub@$00$00$00$00@@YAXUQureg@@V?$vector@HV?$allocator@H@std@@@std@@11UDiagMatr@@V?$complex@N@2@@Z
	??$gpu_statevec_anyCtrlAnyTargDiagMatr_sub@$00$00$00$0A@@@YAXUQureg@@V?$vector@HV?$allocator@H@std@@@std@@11UDiagMatr@@V?$complex@N@2@@Z
	??$gpu_statevec_anyCtrlAnyTargDiagMatr_sub@$00$00$0A@$00@@YAXUQureg@@V?$vector@HV?$allocator@H@std@@@std@@11UDiagMatr@@V?$complex@N@2@@Z
	??$gpu_statevec_anyCtrlAnyTargDiagMatr_sub@$00$00$0A@$0A@@@YAXUQureg@@V?$vector@HV?$allocator@H@std@@@std@@11UDiagMatr@@V?$complex@N@2@@Z
	??$gpu_statevec_anyCtrlAnyTargDiagMatr_sub@$00$01$00$00@@YAXUQureg@@V?$vector@HV?$allocator@H@std@@@std@@11UDiagMatr@@V?$complex@N@2@@Z
	??$gpu_statevec_anyCtrlAnyTargDiagMatr_sub@$00$01$00$0A@@@YAXUQureg@@V?$vector@HV?$allocator@H@std@@@std@@11UDiagMatr@@V?$complex@N@2@@Z
	??$gpu_statevec_anyCtrlAnyTargDiagMatr_sub@$00$01$0A@$00@@YAXUQureg@@V?$vector@HV?$allocator@H@std@@@std@@11UDiagMatr@@V?$complex@N@2@@Z
	??$gpu_statevec_anyCtrlAnyTargDiagMatr_sub@$00$01$0A@$0A@@@YAXUQureg@@V?$vector@HV?$allocator@H@std@@@std@@11UDiagMatr@@V?$complex@N@2@@Z
	??$gpu_statevec_anyCtrlAnyTargDiagMatr_sub@$00$02$00$00@@YAXUQureg@@V?$vector@HV?$allocator@H@std@@@std@@11UDiagMatr@@V?$complex@N@2@@Z
	??$gpu_statevec_anyCtrlAnyTargDiagMatr_sub@$00$02$00$0A@@@YAXUQureg@@V?$vector@HV?$allocator@H@std@@@std@@11UDiagMatr@@V?$complex@N@2@@Z
	??$gpu_statevec_anyCtrlAnyTargDiagMatr_sub@$00$02$0A@$00@@YAXUQureg@@V?$vector@HV?$allocator@H@std@@@std@@11UDiagMatr@@V?$complex@N@2@@Z
	??$gpu_statevec_anyCtrlAnyTargDiagMatr_sub@$00$02$0A@$0A@@@YAXUQureg@@V?$vector@HV?$allocator@H@std@@@std@@11UDiagMatr@@V?$complex@N@2@@Z
	??$gpu_statevec_anyCtrlAnyTargDiagMatr_sub@$00$03$00$00@@YAXUQureg@@V?$vector@HV?$allocator@H@std@@@std@@11UDiagMatr@@V?$complex@N@2@@Z
	??$gpu_statevec_anyCtrlAnyTargDiagMatr_sub@$00$03$00$0A@@@YAXUQureg@@V?$vector@HV?$allocator@H@std@@@std@@11UDiagMatr@@V?$complex@N@2@@Z
	??$gpu_statevec_anyCtrlAnyTargDiagMatr_sub@$00$03$0A@$00@@YAXUQureg@@V?$vector@HV?$allocator@H@std@@@std@@11UDiagMatr@@V?$complex@N@2@@Z
	??$gpu_statevec_anyCtrlAnyTargDiagMatr_sub@$00$03$0A@$0A@@@YAXUQureg@@V?$vector@HV?$allocator@H@std@@@std@@11UDiagMatr@@V?$complex@N@2@@Z
	??$gpu_statevec_anyCtrlAnyTargDiagMatr_sub@$00$04$00$00@@YAXUQureg@@V?$vector@HV?$allocator@H@std@@@std@@11UDiagMatr@@V?$complex@N@2@@Z
	??$gpu_statevec_anyCtrlAnyTargDiagMatr_sub@$00$04$00$0A@@@YAXUQureg@@V?$vector@HV?$allocator@H@std@@@std@@11UDiagMatr@@V?$complex@N@2@@Z
	??$gpu_statevec_anyCtrlAnyTargDiagMatr_sub@$00$04$0A@$00@@YAXUQureg@@V?$vector@HV?$allocator@H@std@@@std@@11UDiagMatr@@V?$complex@N@2@@Z
	??$gpu_statevec_anyCtrlAnyTargDiagMatr_sub@$00$04$0A@$0A@@@YAXUQureg@@V?$vector@HV?$allocator@H@std@@@std@@11UDiagMatr@@V?$complex@N@2@@Z
	??$gpu_statevec_anyCtrlAnyTargDiagMatr_sub@$00$0?0$00$00@@YAXUQureg@@V?$vector@HV?$allocator@H@std@@@std@@11UDiagMatr@@V?$complex@N@2@@Z
	??$gpu_statevec_anyCtrlAnyTargDiagMatr_sub@$00$0?0$00$0A@@@YAXUQureg@@V?$vector@HV?$allocator@H@std@@@std@@11UDiagMatr@@V?$complex@N@2@@Z
	??$gpu_statevec_anyCtrlAnyTargDiagMatr_sub@$00$0?0$0A@$00@@YAXUQureg@@V?$vector@HV?$allocator@H@std@@@std@@11UDiagMatr@@V?$complex@N@2@@Z
	??$gpu_statevec_anyCtrlAnyTargDiagMatr_sub@$00$0?0$0A@$0A@@@YAXUQureg@@V?$vector@HV?$allocator@H@std@@@std@@11UDiagMatr@@V?$complex@N@2@@Z
	??$gpu_statevec_anyCtrlAnyTargDiagMatr_sub@$00$0A@$00$00@@YAXUQureg@@V?$vector@HV?$allocator@H@std@@@std@@11UDiagMatr@@V?$complex@N@2@@Z
	??$gpu_statevec_anyCtrlAnyTargDiagMatr_sub@$00$0A@$00$0A@@@YAXUQureg@@V?$vector@HV?$allocator@H@std@@@std@@11UDiagMatr@@V?$complex@N@2@@Z
	??$gpu_statevec_anyCtrlAnyTargDiagMatr_sub@$00$0A@$0A@$00@@YAXUQureg@@V?$vector@HV?$allocator@H@std@@@std@@11UDiagMatr@@V?$complex@N@2@@Z
	??$gpu_statevec_anyCtrlAnyTargDiagMatr_sub@$00$0A@$0A@$0A@@@YAXUQureg@@V?$vector@HV?$allocator@H@std@@@std@@11UDiagMatr@@V?$complex@N@2@@Z
	??$gpu_statevec_anyCtrlAnyTargDiagMatr_sub@$01$00$00$00@@YAXUQureg@@V?$vector@HV?$allocator@H@std@@@std@@11UDiagMatr@@V?$complex@N@2@@Z
	??$gpu_statevec_anyCtrlAnyTargDiagMatr_sub@$01$00$00$0A@@@YAXUQureg@@V?$vector@HV?$allocator@H@std@@@std@@11UDiagMatr@@V?$complex@N@2@@Z
	??$gpu_statevec_anyCtrlAnyTargDiagMatr_sub@$01$00$0A@$00@@YAXUQureg@@V?$vector@HV?$allocator@H@std@@@std@@11UDiagMatr@@V?$complex@N@2@@Z
	??$gpu_statevec_anyCtrlAnyTargDiagMatr_sub@$01$00$0A@$0A@@@YAXUQureg@@V?$vector@HV?$allocator@H@std@@@std@@11UDiagMatr@@V?$complex@N@2@@Z
	??$gpu_statevec_anyCtrlAnyTargDiagMatr_sub@$01$01$00$00@@YAXUQureg@@V?$vector@HV?$allocator@H@std@@@std@@11UDiagMatr@@V?$complex@N@2@@Z
	??$gpu_statevec_anyCtrlAnyTargDiagMatr_sub@$01$01$00$0A@@@YAXUQureg@@V?$vector@HV?$allocator@H@std@@@std@@11UDiagMatr@@V?$complex@N@2@@Z
	??$gpu_statevec_anyCtrlAnyTargDiagMatr_sub@$01$01$0A@$00@@YAXUQureg@@V?$vector@HV?$allocator@H@std@@@std@@11UDiagMatr@@V?$complex@N@2@@Z
	??$gpu_statevec_anyCtrlAnyTargDiagMatr_sub@$01$01$0A@$0A@@@YAXUQureg@@V?$vector@HV?$allocator@H@std@@@std@@11UDiagMatr@@V?$complex@N@2@@Z
	??$gpu_statevec_anyCtrlAnyTargDiagMatr_sub@$01$02$00$00@@YAXUQureg@@V?$vector@HV?$allocator@H@std@@@std@@11UDiagMatr@@V?$complex@N@2@@Z
	??$gpu_statevec_anyCtrlAnyTargDiagMatr_sub@$01$02$00$0A@@@YAXUQureg@@V?$vector@HV?$allocator@H@std@@@std@@11UDiagMatr@@V?$complex@N@2@@Z
	??$gpu_statevec_anyCtrlAnyTargDiagMatr_sub@$01$02$0A@$00@@YAXUQureg@@V?$vector@HV?$allocator@H@std@@@std@@11UDiagMatr@@V?$complex@N@2@@Z
	??$gpu_statevec_anyCtrlAnyTargDiagMatr_sub@$01$02$0A@$0A@@@YAXUQureg@@V?$vector@HV?$allocator@H@std@@@std@@11UDiagMatr@@V?$complex@N@2@@Z
	??$gpu_statevec_anyCtrlAnyTargDiagMatr_sub@$01$03$00$00@@YAXUQureg@@V?$vector@HV?$allocator@H@std@@@std@@11UDiagMatr@@V?$complex@N@2@@Z
	??$gpu_statevec_anyCtrlAnyTargDiagMatr_sub@$01$03$00$0A@@@YAXUQureg@@V?$vector@HV?$allocator@H@std@@@std@@11UDiagMatr@@V?$complex@N@2@@Z
	??$gpu_statevec_anyCtrlAnyTargDiagMatr_sub@$01$03$0A@$00@@YAXUQureg@@V?$vector@HV?$allocator@H@std@@@std@@11UDiagMatr@@V?$complex@N@2@@Z
	??$gpu_statevec_anyCtrlAnyTargDiagMatr_sub@$01$03$0A@$0A@@@YAXUQureg@@V?$vector@HV?$allocator@H@std@@@std@@11UDiagMatr@@V?$complex@N@2@@Z
	??$gpu_statevec_anyCtrlAnyTargDiagMatr_sub@$01$04$00$00@@YAXUQureg@@V?$vector@HV?$allocator@H@std@@@std@@11UDiagMatr@@V?$complex@N@2@@Z
	??$gpu_statevec_anyCtrlAnyTargDiagMatr_sub@$01$04$00$0A@@@YAXUQureg@@V?$vector@HV?$allocator@H@std@@@std@@11UDiagMatr@@V?$complex@N@2@@Z
	??$gpu_statevec_anyCtrlAnyTargDiagMatr_sub@$01$04$0A@$00@@YAXUQureg@@V?$vector@HV?$allocator@H@std@@@std@@11UDiagMatr@@V?$complex@N@2@@Z
	??$gpu_statevec_anyCtrlAnyTargDiagMatr_sub@$01$04$0A@$0A@@@YAXUQureg@@V?$vector@HV?$allocator@H@std@@@std@@11UDiagMatr@@V?$complex@N@2@@Z
	??$gpu_statevec_anyCtrlAnyTargDiagMatr_sub@$01$0?0$00$00@@YAXUQureg@@V?$vector@HV?$allocator@H@std@@@std@@11UDiagMatr@@V?$complex@N@2@@Z
	??$gpu_statevec_anyCtrlAnyTargDiagMatr_sub@$01$0?0$00$0A@@@YAXUQureg@@V?$vector@HV?$allocator@H@std@@@std@@11UDiagMatr@@V?$complex@N@2@@Z
	??$gpu_statevec_anyCtrlAnyTargDiagMatr_sub@$01$0?0$0A@$00@@YAXUQureg@@V?$vector@HV?$allocator@H@std@@@std@@11UDiagMatr@@V?$complex@N@2@@Z
	??$gpu_statevec_anyCtrlAnyTargDiagMatr_sub@$01$0?0$0A@$0A@@@YAXUQureg@@V?$vector@HV?$allocator@H@std@@@std@@11UDiagMatr@@V?$complex@N@2@@Z
	??$gpu_statevec_anyCtrlAnyTargDiagMatr_sub@$01$0A@$00$00@@YAXUQureg@@V?$vector@HV?$allocator@H@std@@@std@@11UDiagMatr@@V?$complex@N@2@@Z
	??$gpu_statevec_anyCtrlAnyTargDiagMatr_sub@$01$0A@$00$0A@@@YAXUQureg@@V?$vector@HV?$allocator@H@std@@@std@@11UDiagMatr@@V?$complex@N@2@@Z
	??$gpu_statevec_anyCtrlAnyTargDiagMatr_sub@$01$0A@$0A@$00@@YAXUQureg@@V?$vector@HV?$allocator@H@std@@@std@@11UDiagMatr@@V?$complex@N@2@@Z
	??$gpu_statevec_anyCtrlAnyTargDiagMatr_sub@$01$0A@$0A@$0A@@@YAXUQureg@@V?$vector@HV?$allocator@H@std@@@std@@11UDiagMatr@@V?$complex@N@2@@Z
	??$gpu_statevec_anyCtrlAnyTargDiagMatr_sub@$02$00$00$00@@YAXUQureg@@V?$vector@HV?$allocator@H@std@@@std@@11UDiagMatr@@V?$complex@N@2@@Z
	??$gpu_statevec_anyCtrlAnyTargDiagMatr_sub@$02$00$00$0A@@@YAXUQureg@@V?$vector@HV?$allocator@H@std@@@std@@11UDiagMatr@@V?$complex@N@2@@Z
	??$gpu_statevec_anyCtrlAnyTargDiagMatr_sub@$02$00$0A@$00@@YAXUQureg@@V?$vector@HV?$allocator@H@std@@@std@@11UDiagMatr@@V?$complex@N@2@@Z
	??$gpu_statevec_anyCtrlAnyTargDiagMatr_sub@$02$00$0A@$0A@@@YAXUQureg@@V?$vector@HV?$allocator@H@std@@@std@@11UDiagMatr@@V?$complex@N@2@@Z
	??$gpu_statevec_anyCtrlAnyTargDiagMatr_sub@$02$01$00$00@@YAXUQureg@@V?$vector@HV?$allocator@H@std@@@std@@11UDiagMatr@@V?$complex@N@2@@Z
	??$gpu_statevec_anyCtrlAnyTargDiagMatr_sub@$02$01$00$0A@@@YAXUQureg@@V?$vector@HV?$allocator@H@std@@@std@@11UDiagMatr@@V?$complex@N@2@@Z
	??$gpu_statevec_anyCtrlAnyTargDiagMatr_sub@$02$01$0A@$00@@YAXUQureg@@V?$vector@HV?$allocator@H@std@@@std@@11UDiagMatr@@V?$complex@N@2@@Z
	??$gpu_statevec_anyCtrlAnyTargDiagMatr_sub@$02$01$0A@$0A@@@YAXUQureg@@V?$vector@HV?$allocator@H@std@@@std@@11UDiagMatr@@V?$complex@N@2@@Z
	??$gpu_statevec_anyCtrlAnyTargDiagMatr_sub@$02$02$00$00@@YAXUQureg@@V?$vector@HV?$allocator@H@std@@@std@@11UDiagMatr@@V?$complex@N@2@@Z
	??$gpu_statevec_anyCtrlAnyTargDiagMatr_sub@$02$02$00$0A@@@YAXUQureg@@V?$vector@HV?$allocator@H@std@@@std@@11UDiagMatr@@V?$complex@N@2@@Z
	??$gpu_statevec_anyCtrlAnyTargDiagMatr_sub@$02$02$0A@$00@@YAXUQureg@@V?$vector@HV?$allocator@H@std@@@std@@11UDiagMatr@@V?$complex@N@2@@Z
	??$gpu_statevec_anyCtrlAnyTargDiagMatr_sub@$02$02$0A@$0A@@@YAXUQureg@@V?$vector@HV?$allocator@H@std@@@std@@11UDiagMatr@@V?$complex@N@2@@Z
	??$gpu_statevec_anyCtrlAnyTargDiagMatr_sub@$02$03$00$00@@YAXUQureg@@V?$vector@HV?$allocator@H@std@@@std@@11UDiagMatr@@V?$complex@N@2@@Z
	??$gpu_statevec_anyCtrlAnyTargDiagMatr_sub@$02$03$00$0A@@@YAXUQureg@@V?$vector@HV?$allocator@H@std@@@std@@11UDiagMatr@@V?$complex@N@2@@Z
	??$gpu_statevec_anyCtrlAnyTargDiagMatr_sub@$02$03$0A@$00@@YAXUQureg@@V?$vector@HV?$allocator@H@std@@@std@@11UDiagMatr@@V?$complex@N@2@@Z
	??$gpu_statevec_anyCtrlAnyTargDiagMatr_sub@$02$03$0A@$0A@@@YAXUQureg@@V?$vector@HV?$allocator@H@std@@@std@@11UDiagMatr@@V?$complex@N@2@@Z
	??$gpu_statevec_anyCtrlAnyTargDiagMatr_sub@$02$04$00$00@@YAXUQureg@@V?$vector@HV?$allocator@H@std@@@std@@11UDiagMatr@@V?$complex@N@2@@Z
	??$gpu_statevec_anyCtrlAnyTargDiagMatr_sub@$02$04$00$0A@@@YAXUQureg@@V?$vector@HV?$allocator@H@std@@@std@@11UDiagMatr@@V?$complex@N@2@@Z
	??$gpu_statevec_anyCtrlAnyTargDiagMatr_sub@$02$04$0A@$00@@YAXUQureg@@V?$vector@HV?$allocator@H@std@@@std@@11UDiagMatr@@V?$complex@N@2@@Z
	??$gpu_statevec_anyCtrlAnyTargDiagMatr_sub@$02$04$0A@$0A@@@YAXUQureg@@V?$vector@HV?$allocator@H@std@@@std@@11UDiagMatr@@V?$complex@N@2@@Z
	??$gpu_statevec_anyCtrlAnyTargDiagMatr_sub@$02$0?0$00$00@@YAXUQureg@@V?$vector@HV?$allocator@H@std@@@std@@11UDiagMatr@@V?$complex@N@2@@Z
	??$gpu_statevec_anyCtrlAnyTargDiagMatr_sub@$02$0?0$00$0A@@@YAXUQureg@@V?$vector@HV?$allocator@H@std@@@std@@11UDiagMatr@@V?$complex@N@2@@Z
	??$gpu_statevec_anyCtrlAnyTargDiagMatr_sub@$02$0?0$0A@$00@@YAXUQureg@@V?$vector@HV?$allocator@H@std@@@std@@11UDiagMatr@@V?$complex@N@2@@Z
	??$gpu_statevec_anyCtrlAnyTargDiagMatr_sub@$02$0?0$0A@$0A@@@YAXUQureg@@V?$vector@HV?$allocator@H@std@@@std@@11UDiagMatr@@V?$complex@N@2@@Z
	??$gpu_statevec_anyCtrlAnyTargDiagMatr_sub@$02$0A@$00$00@@YAXUQureg@@V?$vector@HV?$allocator@H@std@@@std@@11UDiagMatr@@V?$complex@N@2@@Z
	??$gpu_statevec_anyCtrlAnyTargDiagMatr_sub@$02$0A@$00$0A@@@YAXUQureg@@V?$vector@HV?$allocator@H@std@@@std@@11UDiagMatr@@V?$complex@N@2@@Z
	??$gpu_statevec_anyCtrlAnyTargDiagMatr_sub@$02$0A@$0A@$00@@YAXUQureg@@V?$vector@HV?$allocator@H@std@@@std@@11UDiagMatr@@V?$complex@N@2@@Z
	??$gpu_statevec_anyCtrlAnyTargDiagMatr_sub@$02$0A@$0A@$0A@@@YAXUQureg@@V?$vector@HV?$allocator@H@std@@@std@@11UDiagMatr@@V?$complex@N@2@@Z
	??$gpu_statevec_anyCtrlAnyTargDiagMatr_sub@$03$00$00$00@@YAXUQureg@@V?$vector@HV?$allocator@H@std@@@std@@11UDiagMatr@@V?$complex@N@2@@Z
	??$gpu_statevec_anyCtrlAnyTargDiagMatr_sub@$03$00$00$0A@@@YAXUQureg@@V?$vector@HV?$allocator@H@std@@@std@@11UDiagMatr@@V?$complex@N@2@@Z
	??$gpu_statevec_anyCtrlAnyTargDiagMatr_sub@$03$00$0A@$00@@YAXUQureg@@V?$vector@HV?$allocator@H@std@@@std@@11UDiagMatr@@V?$complex@N@2@@Z
	??$gpu_statevec_anyCtrlAnyTargDiagMatr_sub@$03$00$0A@$0A@@@YAXUQureg@@V?$vector@HV?$allocator@H@std@@@std@@11UDiagMatr@@V?$complex@N@2@@Z
	??$gpu_statevec_anyCtrlAnyTargDiagMatr_sub@$03$01$00$00@@YAXUQureg@@V?$vector@HV?$allocator@H@std@@@std@@11UDiagMatr@@V?$complex@N@2@@Z
	??$gpu_statevec_anyCtrlAnyTargDiagMatr_sub@$03$01$00$0A@@@YAXUQureg@@V?$vector@HV?$allocator@H@std@@@std@@11UDiagMatr@@V?$complex@N@2@@Z
	??$gpu_statevec_anyCtrlAnyTargDiagMatr_sub@$03$01$0A@$00@@YAXUQureg@@V?$vector@HV?$allocator@H@std@@@std@@11UDiagMatr@@V?$complex@N@2@@Z
	??$gpu_statevec_anyCtrlAnyTargDiagMatr_sub@$03$01$0A@$0A@@@YAXUQureg@@V?$vector@HV?$allocator@H@std@@@std@@11UDiagMatr@@V?$complex@N@2@@Z
	??$gpu_statevec_anyCtrlAnyTargDiagMatr_sub@$03$02$00$00@@YAXUQureg@@V?$vector@HV?$allocator@H@std@@@std@@11UDiagMatr@@V?$complex@N@2@@Z
	??$gpu_statevec_anyCtrlAnyTargDiagMatr_sub@$03$02$00$0A@@@YAXUQureg@@V?$vector@HV?$allocator@H@std@@@std@@11UDiagMatr@@V?$complex@N@2@@Z
	??$gpu_statevec_anyCtrlAnyTargDiagMatr_sub@$03$02$0A@$00@@YAXUQureg@@V?$vector@HV?$allocator@H@std@@@std@@11UDiagMatr@@V?$complex@N@2@@Z
	??$gpu_statevec_anyCtrlAnyTargDiagMatr_sub@$03$02$0A@$0A@@@YAXUQureg@@V?$vector@HV?$allocator@H@std@@@std@@11UDiagMatr@@V?$complex@N@2@@Z
	??$gpu_statevec_anyCtrlAnyTargDiagMatr_sub@$03$03$00$00@@YAXUQureg@@V?$vector@HV?$allocator@H@std@@@std@@11UDiagMatr@@V?$complex@N@2@@Z
	??$gpu_statevec_anyCtrlAnyTargDiagMatr_sub@$03$03$00$0A@@@YAXUQureg@@V?$vector@HV?$allocator@H@std@@@std@@11UDiagMatr@@V?$complex@N@2@@Z
	??$gpu_statevec_anyCtrlAnyTargDiagMatr_sub@$03$03$0A@$00@@YAXUQureg@@V?$vector@HV?$allocator@H@std@@@std@@11UDiagMatr@@V?$complex@N@2@@Z
	??$gpu_statevec_anyCtrlAnyTargDiagMatr_sub@$03$03$0A@$0A@@@YAXUQureg@@V?$vector@HV?$allocator@H@std@@@std@@11UDiagMatr@@V?$complex@N@2@@Z
	??$gpu_statevec_anyCtrlAnyTargDiagMatr_sub@$03$04$00$00@@YAXUQureg@@V?$vector@HV?$allocator@H@std@@@std@@11UDiagMatr@@V?$complex@N@2@@Z
	??$gpu_statevec_anyCtrlAnyTargDiagMatr_sub@$03$04$00$0A@@@YAXUQureg@@V?$vector@HV?$allocator@H@std@@@std@@11UDiagMatr@@V?$complex@N@2@@Z
	??$gpu_statevec_anyCtrlAnyTargDiagMatr_sub@$03$04$0A@$00@@YAXUQureg@@V?$vector@HV?$allocator@H@std@@@std@@11UDiagMatr@@V?$complex@N@2@@Z
	??$gpu_statevec_anyCtrlAnyTargDiagMatr_sub@$03$04$0A@$0A@@@YAXUQureg@@V?$vector@HV?$allocator@H@std@@@std@@11UDiagMatr@@V?$complex@N@2@@Z
	??$gpu_statevec_anyCtrlAnyTargDiagMatr_sub@$03$0?0$00$00@@YAXUQureg@@V?$vector@HV?$allocator@H@std@@@std@@11UDiagMatr@@V?$complex@N@2@@Z
	??$gpu_statevec_anyCtrlAnyTargDiagMatr_sub@$03$0?0$00$0A@@@YAXUQureg@@V?$vector@HV?$allocator@H@std@@@std@@11UDiagMatr@@V?$complex@N@2@@Z
	??$gpu_statevec_anyCtrlAnyTargDiagMatr_sub@$03$0?0$0A@$00@@YAXUQureg@@V?$vector@HV?$allocator@H@std@@@std@@11UDiagMatr@@V?$complex@N@2@@Z
	??$gpu_statevec_anyCtrlAnyTargDiagMatr_sub@$03$0?0$0A@$0A@@@YAXUQureg@@V?$vector@HV?$allocator@H@std@@@std@@11UDiagMatr@@V?$complex@N@2@@Z
	??$gpu_statevec_anyCtrlAnyTargDiagMatr_sub@$03$0A@$00$00@@YAXUQureg@@V?$vector@HV?$allocator@H@std@@@std@@11UDiagMatr@@V?$complex@N@2@@Z
	??$gpu_statevec_anyCtrlAnyTargDiagMatr_sub@$03$0A@$00$0A@@@YAXUQureg@@V?$vector@HV?$allocator@H@std@@@std@@11UDiagMatr@@V?$complex@N@2@@Z
	??$gpu_statevec_anyCtrlAnyTargDiagMatr_sub@$03$0A@$0A@$00@@YAXUQureg@@V?$vector@HV?$allocator@H@std@@@std@@11UDiagMatr@@V?$complex@N@2@@Z
	??$gpu_statevec_anyCtrlAnyTargDiagMatr_sub@$03$0A@$0A@$0A@@@YAXUQureg@@V?$vector@HV?$allocator@H@std@@@std@@11UDiagMatr@@V?$complex@N@2@@Z
	??$gpu_statevec_anyCtrlAnyTargDiagMatr_sub@$04$00$00$00@@YAXUQureg@@V?$vector@HV?$allocator@H@std@@@std@@11UDiagMatr@@V?$complex@N@2@@Z
	??$gpu_statevec_anyCtrlAnyTargDiagMatr_sub@$04$00$00$0A@@@YAXUQureg@@V?$vector@HV?$allocator@H@std@@@std@@11UDiagMatr@@V?$complex@N@2@@Z
	??$gpu_statevec_anyCtrlAnyTargDiagMatr_sub@$04$00$0A@$00@@YAXUQureg@@V?$vector@HV?$allocator@H@std@@@std@@11UDiagMatr@@V?$complex@N@2@@Z
	??$gpu_statevec_anyCtrlAnyTargDiagMatr_sub@$04$00$0A@$0A@@@YAXUQureg@@V?$vector@HV?$allocator@H@std@@@std@@11UDiagMatr@@V?$complex@N@2@@Z
	??$gpu_statevec_anyCtrlAnyTargDiagMatr_sub@$04$01$00$00@@YAXUQureg@@V?$vector@HV?$allocator@H@std@@@std@@11UDiagMatr@@V?$complex@N@2@@Z
	??$gpu_statevec_anyCtrlAnyTargDiagMatr_sub@$04$01$00$0A@@@YAXUQureg@@V?$vector@HV?$allocator@H@std@@@std@@11UDiagMatr@@V?$complex@N@2@@Z
	??$gpu_statevec_anyCtrlAnyTargDiagMatr_sub@$04$01$0A@$00@@YAXUQureg@@V?$vector@HV?$allocator@H@std@@@std@@11UDiagMatr@@V?$complex@N@2@@Z
	??$gpu_statevec_anyCtrlAnyTargDiagMatr_sub@$04$01$0A@$0A@@@YAXUQureg@@V?$vector@HV?$allocator@H@std@@@std@@11UDiagMatr@@V?$complex@N@2@@Z
	??$gpu_statevec_anyCtrlAnyTargDiagMatr_sub@$04$02$00$00@@YAXUQureg@@V?$vector@HV?$allocator@H@std@@@std@@11UDiagMatr@@V?$complex@N@2@@Z
	??$gpu_statevec_anyCtrlAnyTargDiagMatr_sub@$04$02$00$0A@@@YAXUQureg@@V?$vector@HV?$allocator@H@std@@@std@@11UDiagMatr@@V?$complex@N@2@@Z
	??$gpu_statevec_anyCtrlAnyTargDiagMatr_sub@$04$02$0A@$00@@YAXUQureg@@V?$vector@HV?$allocator@H@std@@@std@@11UDiagMatr@@V?$complex@N@2@@Z
	??$gpu_statevec_anyCtrlAnyTargDiagMatr_sub@$04$02$0A@$0A@@@YAXUQureg@@V?$vector@HV?$allocator@H@std@@@std@@11UDiagMatr@@V?$complex@N@2@@Z
	??$gpu_statevec_anyCtrlAnyTargDiagMatr_sub@$04$03$00$00@@YAXUQureg@@V?$vector@HV?$allocator@H@std@@@std@@11UDiagMatr@@V?$complex@N@2@@Z
	??$gpu_statevec_anyCtrlAnyTargDiagMatr_sub@$04$03$00$0A@@@YAXUQureg@@V?$vector@HV?$allocator@H@std@@@std@@11UDiagMatr@@V?$complex@N@2@@Z
	??$gpu_statevec_anyCtrlAnyTargDiagMatr_sub@$04$03$0A@$00@@YAXUQureg@@V?$vector@HV?$allocator@H@std@@@std@@11UDiagMatr@@V?$complex@N@2@@Z
	??$gpu_statevec_anyCtrlAnyTargDiagMatr_sub@$04$03$0A@$0A@@@YAXUQureg@@V?$vector@HV?$allocator@H@std@@@std@@11UDiagMatr@@V?$complex@N@2@@Z
	??$gpu_statevec_anyCtrlAnyTargDiagMatr_sub@$04$04$00$00@@YAXUQureg@@V?$vector@HV?$allocator@H@std@@@std@@11UDiagMatr@@V?$complex@N@2@@Z
	??$gpu_statevec_anyCtrlAnyTargDiagMatr_sub@$04$04$00$0A@@@YAXUQureg@@V?$vector@HV?$allocator@H@std@@@std@@11UDiagMatr@@V?$complex@N@2@@Z
	??$gpu_statevec_anyCtrlAnyTargDiagMatr_sub@$04$04$0A@$00@@YAXUQureg@@V?$vector@HV?$allocator@H@std@@@std@@11UDiagMatr@@V?$complex@N@2@@Z
	??$gpu_statevec_anyCtrlAnyTargDiagMatr_sub@$04$04$0A@$0A@@@YAXUQureg@@V?$vector@HV?$allocator@H@std@@@std@@11UDiagMatr@@V?$complex@N@2@@Z
	??$gpu_statevec_anyCtrlAnyTargDiagMatr_sub@$04$0?0$00$00@@YAXUQureg@@V?$vector@HV?$allocator@H@std@@@std@@11UDiagMatr@@V?$complex@N@2@@Z
	??$gpu_statevec_anyCtrlAnyTargDiagMatr_sub@$04$0?0$00$0A@@@YAXUQureg@@V?$vector@HV?$allocator@H@std@@@std@@11UDiagMatr@@V?$complex@N@2@@Z
	??$gpu_statevec_anyCtrlAnyTargDiagMatr_sub@$04$0?0$0A@$00@@YAXUQureg@@V?$vector@HV?$allocator@H@std@@@std@@11UDiagMatr@@V?$complex@N@2@@Z
	??$gpu_statevec_anyCtrlAnyTargDiagMatr_sub@$04$0?0$0A@$0A@@@YAXUQureg@@V?$vector@HV?$allocator@H@std@@@std@@11UDiagMatr@@V?$complex@N@2@@Z
	??$gpu_statevec_anyCtrlAnyTargDiagMatr_sub@$04$0A@$00$00@@YAXUQureg@@V?$vector@HV?$allocator@H@std@@@std@@11UDiagMatr@@V?$complex@N@2@@Z
	??$gpu_statevec_anyCtrlAnyTargDiagMatr_sub@$04$0A@$00$0A@@@YAXUQureg@@V?$vector@HV?$allocator@H@std@@@std@@11UDiagMatr@@V?$complex@N@2@@Z
	??$gpu_statevec_anyCtrlAnyTargDiagMatr_sub@$04$0A@$0A@$00@@YAXUQureg@@V?$vector@HV?$allocator@H@std@@@std@@11UDiagMatr@@V?$complex@N@2@@Z
	??$gpu_statevec_anyCtrlAnyTargDiagMatr_sub@$04$0A@$0A@$0A@@@YAXUQureg@@V?$vector@HV?$allocator@H@std@@@std@@11UDiagMatr@@V?$complex@N@2@@Z
	??$gpu_statevec_anyCtrlAnyTargDiagMatr_sub@$0?0$00$00$00@@YAXUQureg@@V?$vector@HV?$allocator@H@std@@@std@@11UDiagMatr@@V?$complex@N@2@@Z
	??$gpu_statevec_anyCtrlAnyTargDiagMatr_sub@$0?0$00$00$0A@@@YAXUQureg@@V?$vector@HV?$allocator@H@std@@@std@@11UDiagMatr@@V?$complex@N@2@@Z
	??$gpu_statevec_anyCtrlAnyTargDiagMatr_sub@$0?0$00$0A@$00@@YAXUQureg@@V?$vector@HV?$allocator@H@std@@@std@@11UDiagMatr@@V?$complex@N@2@@Z
	??$gpu_statevec_anyCtrlAnyTargDiagMatr_sub@$0?0$00$0A@$0A@@@YAXUQureg@@V?$vector@HV?$allocator@H@std@@@std@@11UDiagMatr@@V?$complex@N@2@@Z
	??$gpu_statevec_anyCtrlAnyTargDiagMatr_sub@$0?0$01$00$00@@YAXUQureg@@V?$vector@HV?$allocator@H@std@@@std@@11UDiagMatr@@V?$complex@N@2@@Z
	??$gpu_statevec_anyCtrlAnyTargDiagMatr_sub@$0?0$01$00$0A@@@YAXUQureg@@V?$vector@HV?$allocator@H@std@@@std@@11UDiagMatr@@V?$complex@N@2@@Z
	??$gpu_statevec_anyCtrlAnyTargDiagMatr_sub@$0?0$01$0A@$00@@YAXUQureg@@V?$vector@HV?$allocator@H@std@@@std@@11UDiagMatr@@V?$complex@N@2@@Z
	??$gpu_statevec_anyCtrlAnyTargDiagMatr_sub@$0?0$01$0A@$0A@@@YAXUQureg@@V?$vector@HV?$allocator@H@std@@@std@@11UDiagMatr@@V?$complex@N@2@@Z
	??$gpu_statevec_anyCtrlAnyTargDiagMatr_sub@$0?0$02$00$00@@YAXUQureg@@V?$vector@HV?$allocator@H@std@@@std@@11UDiagMatr@@V?$complex@N@2@@Z
	??$gpu_statevec_anyCtrlAnyTargDiagMatr_sub@$0?0$02$00$0A@@@YAXUQureg@@V?$vector@HV?$allocator@H@std@@@std@@11UDiagMatr@@V?$complex@N@2@@Z
	??$gpu_statevec_anyCtrlAnyTargDiagMatr_sub@$0?0$02$0A@$00@@YAXUQureg@@V?$vector@HV?$allocator@H@std@@@std@@11UDiagMatr@@V?$complex@N@2@@Z
	??$gpu_statevec_anyCtrlAnyTargDiagMatr_sub@$0?0$02$0A@$0A@@@YAXUQureg@@V?$vector@HV?$allocator@H@std@@@std@@11UDiagMatr@@V?$complex@N@2@@Z
	??$gpu_statevec_anyCtrlAnyTargDiagMatr_sub@$0?0$03$00$00@@YAXUQureg@@V?$vector@HV?$allocator@H@std@@@std@@11UDiagMatr@@V?$complex@N@2@@Z
	??$gpu_statevec_anyCtrlAnyTargDiagMatr_sub@$0?0$03$00$0A@@@YAXUQureg@@V?$vector@HV?$allocator@H@std@@@std@@11UDiagMatr@@V?$complex@N@2@@Z
	??$gpu_statevec_anyCtrlAnyTargDiagMatr_sub@$0?0$03$0A@$00@@YAXUQureg@@V?$vector@HV?$allocator@H@std@@@std@@11UDiagMatr@@V?$complex@N@2@@Z
	??$gpu_statevec_anyCtrlAnyTargDiagMatr_sub@$0?0$03$0A@$0A@@@YAXUQureg@@V?$vector@HV?$allocator@H@std@@@std@@11UDiagMatr@@V?$complex@N@2@@Z
	??$gpu_statevec_anyCtrlAnyTargDiagMatr_sub@$0?0$04$00$00@@YAXUQureg@@V?$vector@HV?$allocator@H@std@@@std@@11UDiagMatr@@V?$complex@N@2@@Z
	??$gpu_statevec_anyCtrlAnyTargDiagMatr_sub@$0?0$04$00$0A@@@YAXUQureg@@V?$vector@HV?$allocator@H@std@@@std@@11UDiagMatr@@V?$complex@N@2@@Z
	??$gpu_statevec_anyCtrlAnyTargDiagMatr_sub@$0?0$04$0A@$00@@YAXUQureg@@V?$vector@HV?$allocator@H@std@@@std@@11UDiagMatr@@V?$complex@N@2@@Z
	??$gpu_statevec_anyCtrlAnyTargDiagMatr_sub@$0?0$04$0A@$0A@@@YAXUQureg@@V?$vector@HV?$allocator@H@std@@@std@@11UDiagMatr@@V?$complex@N@2@@Z
	??$gpu_statevec_anyCtrlAnyTargDiagMatr_sub@$0?0$0?0$00$00@@YAXUQureg@@V?$vector@HV?$allocator@H@std@@@std@@11UDiagMatr@@V?$complex@N@2@@Z
	??$gpu_statevec_anyCtrlAnyTargDiagMatr_sub@$0?0$0?0$00$0A@@@YAXUQureg@@V?$vector@HV?$allocator@H@std@@@std@@11UDiagMatr@@V?$complex@N@2@@Z
	??$gpu_statevec_anyCtrlAnyTargDiagMatr_sub@$0?0$0?0$0A@$00@@YAXUQureg@@V?$vector@HV?$allocator@H@std@@@std@@11UDiagMatr@@V?$complex@N@2@@Z
	??$gpu_statevec_anyCtrlAnyTargDiagMatr_sub@$0?0$0?0$0A@$0A@@@YAXUQureg@@V?$vector@HV?$allocator@H@std@@@std@@11UDiagMatr@@V?$complex@N@2@@Z
	??$gpu_statevec_anyCtrlAnyTargDiagMatr_sub@$0?0$0A@$00$00@@YAXUQureg@@V?$vector@HV?$allocator@H@std@@@std@@11UDiagMatr@@V?$complex@N@2@@Z
	??$gpu_statevec_anyCtrlAnyTargDiagMatr_sub@$0?0$0A@$00$0A@@@YAXUQureg@@V?$vector@HV?$allocator@H@std@@@std@@11UDiagMatr@@V?$complex@N@2@@Z
	??$gpu_statevec_anyCtrlAnyTargDiagMatr_sub@$0?0$0A@$0A@$00@@YAXUQureg@@V?$vector@HV?$allocator@H@std@@@std@@11UDiagMatr@@V?$complex@N@2@@Z
	??$gpu_statevec_anyCtrlAnyTargDiagMatr_sub@$0?0$0A@$0A@$0A@@@YAXUQureg@@V?$vector@HV?$allocator@H@std@@@std@@11UDiagMatr@@V?$complex@N@2@@Z
	??$gpu_statevec_anyCtrlAnyTargDiagMatr_sub@$0A@$00$00$00@@YAXUQureg@@V?$vector@HV?$allocator@H@std@@@std@@11UDiagMatr@@V?$complex@N@2@@Z
	??$gpu_statevec_anyCtrlAnyTargDiagMatr_sub@$0A@$00$00$0A@@@YAXUQureg@@V?$vector@HV?$allocator@H@std@@@std@@11UDiagMatr@@V?$complex@N@2@@Z
	??$gpu_statevec_anyCtrlAnyTargDiagMatr_sub@$0A@$00$0A@$00@@YAXUQureg@@V?$vector@HV?$allocator@H@std@@@std@@11UDiagMatr@@V?$complex@N@2@@Z
	??$gpu_statevec_anyCtrlAnyTargDiagMatr_sub@$0A@$00$0A@$0A@@@YAXUQureg@@V?$vector@HV?$allocator@H@std@@@std@@11UDiagMatr@@V?$complex@N@2@@Z
	??$gpu_statevec_anyCtrlAnyTargDiagMatr_sub@$0A@$01$00$00@@YAXUQureg@@V?$vector@HV?$allocator@H@std@@@std@@11UDiagMatr@@V?$complex@N@2@@Z
	??$gpu_statevec_anyCtrlAnyTargDiagMatr_sub@$0A@$01$00$0A@@@YAXUQureg@@V?$vector@HV?$allocator@H@std@@@std@@11UDiagMatr@@V?$complex@N@2@@Z
	??$gpu_statevec_anyCtrlAnyTargDiagMatr_sub@$0A@$01$0A@$00@@YAXUQureg@@V?$vector@HV?$allocator@H@std@@@std@@11UDiagMatr@@V?$complex@N@2@@Z
	??$gpu_statevec_anyCtrlAnyTargDiagMatr_sub@$0A@$01$0A@$0A@@@YAXUQureg@@V?$vector@HV?$allocator@H@std@@@std@@11UDiagMatr@@V?$complex@N@2@@Z
	??$gpu_statevec_anyCtrlAnyTargDiagMatr_sub@$0A@$02$00$00@@YAXUQureg@@V?$vector@HV?$allocator@H@std@@@std@@11UDiagMatr@@V?$complex@N@2@@Z
	??$gpu_statevec_anyCtrlAnyTargDiagMatr_sub@$0A@$02$00$0A@@@YAXUQureg@@V?$vector@HV?$allocator@H@std@@@std@@11UDiagMatr@@V?$complex@N@2@@Z
	??$gpu_statevec_anyCtrlAnyTargDiagMatr_sub@$0A@$02$0A@$00@@YAXUQureg@@V?$vector@HV?$allocator@H@std@@@std@@11UDiagMatr@@V?$complex@N@2@@Z
	??$gpu_statevec_anyCtrlAnyTargDiagMatr_sub@$0A@$02$0A@$0A@@@YAXUQureg@@V?$vector@HV?$allocator@H@std@@@std@@11UDiagMatr@@V?$complex@N@2@@Z
	??$gpu_statevec_anyCtrlAnyTargDiagMatr_sub@$0A@$03$00$00@@YAXUQureg@@V?$vector@HV?$allocator@H@std@@@std@@11UDiagMatr@@V?$complex@N@2@@Z
	??$gpu_statevec_anyCtrlAnyTargDiagMatr_sub@$0A@$03$00$0A@@@YAXUQureg@@V?$vector@HV?$allocator@H@std@@@std@@11UDiagMatr@@V?$complex@N@2@@Z
	??$gpu_statevec_anyCtrlAnyTargDiagMatr_sub@$0A@$03$0A@$00@@YAXUQureg@@V?$vector@HV?$allocator@H@std@@@std@@11UDiagMatr@@V?$complex@N@2@@Z
	??$gpu_statevec_anyCtrlAnyTargDiagMatr_sub@$0A@$03$0A@$0A@@@YAXUQureg@@V?$vector@HV?$allocator@H@std@@@std@@11UDiagMatr@@V?$complex@N@2@@Z
	??$gpu_statevec_anyCtrlAnyTargDiagMatr_sub@$0A@$04$00$00@@YAXUQureg@@V?$vector@HV?$allocator@H@std@@@std@@11UDiagMatr@@V?$complex@N@2@@Z
	??$gpu_statevec_anyCtrlAnyTargDiagMatr_sub@$0A@$04$00$0A@@@YAXUQureg@@V?$vector@HV?$allocator@H@std@@@std@@11UDiagMatr@@V?$complex@N@2@@Z
	??$gpu_statevec_anyCtrlAnyTargDiagMatr_sub@$0A@$04$0A@$00@@YAXUQureg@@V?$vector@HV?$allocator@H@std@@@std@@11UDiagMatr@@V?$complex@N@2@@Z
	??$gpu_statevec_anyCtrlAnyTargDiagMatr_sub@$0A@$04$0A@$0A@@@YAXUQureg@@V?$vector@HV?$allocator@H@std@@@std@@11UDiagMatr@@V?$complex@N@2@@Z
	??$gpu_statevec_anyCtrlAnyTargDiagMatr_sub@$0A@$0?0$00$00@@YAXUQureg@@V?$vector@HV?$allocator@H@std@@@std@@11UDiagMatr@@V?$complex@N@2@@Z
	??$gpu_statevec_anyCtrlAnyTargDiagMatr_sub@$0A@$0?0$00$0A@@@YAXUQureg@@V?$vector@HV?$allocator@H@std@@@std@@11UDiagMatr@@V?$complex@N@2@@Z
	??$gpu_statevec_anyCtrlAnyTargDiagMatr_sub@$0A@$0?0$0A@$00@@YAXUQureg@@V?$vector@HV?$allocator@H@std@@@std@@11UDiagMatr@@V?$complex@N@2@@Z
	??$gpu_statevec_anyCtrlAnyTargDiagMatr_sub@$0A@$0?0$0A@$0A@@@YAXUQureg@@V?$vector@HV?$allocator@H@std@@@std@@11UDiagMatr@@V?$complex@N@2@@Z
	??$gpu_statevec_anyCtrlAnyTargDiagMatr_sub@$0A@$0A@$00$00@@YAXUQureg@@V?$vector@HV?$allocator@H@std@@@std@@11UDiagMatr@@V?$complex@N@2@@Z
	??$gpu_statevec_anyCtrlAnyTargDiagMatr_sub@$0A@$0A@$00$0A@@@YAXUQureg@@V?$vector@HV?$allocator@H@std@@@std@@11UDiagMatr@@V?$complex@N@2@@Z
	??$gpu_statevec_anyCtrlAnyTargDiagMatr_sub@$0A@$0A@$0A@$00@@YAXUQureg@@V?$vector@HV?$allocator@H@std@@@std@@11UDiagMatr@@V?$complex@N@2@@Z
	??$gpu_statevec_anyCtrlAnyTargDiagMatr_sub@$0A@$0A@$0A@$0A@@@YAXUQureg@@V?$vector@HV?$allocator@H@std@@@std@@11UDiagMatr@@V?$complex@N@2@@Z
	??$gpu_statevec_anyCtrlOneTargDenseMatr_subA@$00@@YAXUQureg@@V?$vector@HV?$allocator@H@std@@@std@@1HUCompMatr1@@@Z
	??$gpu_statevec_anyCtrlOneTargDenseMatr_subA@$01@@YAXUQureg@@V?$vector@HV?$allocator@H@std@@@std@@1HUCompMatr1@@@Z
	??$gpu_statevec_anyCtrlOneTargDenseMatr_subA@$02@@YAXUQureg@@V?$vector@HV?$allocator@H@std@@@std@@1HUCompMatr1@@@Z
	??$gpu_statevec_anyCtrlOneTargDenseMatr_subA@$03@@YAXUQureg@@V?$vector@HV?$allocator@H@std@@@std@@1HUCompMatr1@@@Z
	??$gpu_statevec_anyCtrlOneTargDenseMatr_subA@$04@@YAXUQureg@@V?$vector@HV?$allocator@H@std@@@std@@1HUCompMatr1@@@Z
	??$gpu_statevec_anyCtrlOneTargDenseMatr_subA@$0?0@@YAXUQureg@@V?$vector@HV?$allocator@H@std@@@std@@1HUCompMatr1@@@Z
	??$gpu_statevec_anyCtrlOneTargDenseMatr_subA@$0A@@@YAXUQureg@@V?$vector@HV?$allocator@H@std@@@std@@1HUCompMatr1@@@Z
	??$gpu_statevec_anyCtrlOneTargDenseMatr_subB@$00@@YAXUQureg@@V?$vector@HV?$allocator@H@std@@@std@@1V?$complex@N@2@2@Z
	??$gpu_statevec_anyCtrlOneTargDenseMatr_subB@$01@@YAXUQureg@@V?$vector@HV?$allocator@H@std@@@std@@1V?$complex@N@2@2@Z
	??$gpu_statevec_anyCtrlOneTargDenseMatr_subB@$02@@YAXUQureg@@V?$vector@HV?$allocator@H@std@@@std@@1V?$complex@N@2@2@Z
	??$gpu_statevec_anyCtrlOneTargDenseMatr_subB@$03@@YAXUQureg@@V?$vector@HV?$allocator@H@std@@@std@@1V?$complex@N@2@2@Z
	??$gpu_statevec_anyCtrlOneTargDenseMatr_subB@$04@@YAXUQureg@@V?$vector@HV?$allocator@H@std@@@std@@1V?$complex@N@2@2@Z
	??$gpu_statevec_anyCtrlOneTargDenseMatr_subB@$0?0@@YAXUQureg@@V?$vector@HV?$allocator@H@std@@@std@@1V?$complex@N@2@2@Z
	??$gpu_statevec_anyCtrlOneTargDenseMatr_subB@$0A@@@YAXUQureg@@V?$vector@HV?$allocator@H@std@@@std@@1V?$complex@N@2@2@Z
	??$gpu_statevec_anyCtrlOneTargDiagMatr_sub@$00@@YAXUQureg@@V?$vector@HV?$allocator@H@std@@@std@@1HUDiagMatr1@@@Z
	??$gpu_statevec_anyCtrlOneTargDiagMatr_sub@$01@@YAXUQureg@@V?$vector@HV?$allocator@H@std@@@std@@1HUDiagMatr1@@@Z
	??$gpu_statevec_anyCtrlOneTargDiagMatr_sub@$02@@YAXUQureg@@V?$vector@HV?$allocator@H@std@@@std@@1HUDiagMatr1@@@Z
	??$gpu_statevec_anyCtrlOneTargDiagMatr_sub@$03@@YAXUQureg@@V?$vector@HV?$allocator@H@std@@@std@@1HUDiagMatr1@@@Z
	??$gpu_statevec_anyCtrlOneTargDiagMatr_sub@$04@@YAXUQureg@@V?$vector@HV?$allocator@H@std@@@std@@1HUDiagMatr1@@@Z
	??$gpu_statevec_anyCtrlOneTargDiagMatr_sub@$0?0@@YAXUQureg@@V?$vector@HV?$allocator@H@std@@@std@@1HUDiagMatr1@@@Z
	??$gpu_statevec_anyCtrlOneTargDiagMatr_sub@$0A@@@YAXUQureg@@V?$vector@HV?$allocator@H@std@@@std@@1HUDiagMatr1@@@Z
	??$gpu_statevec_anyCtrlSwap_subA@$00@@YAXUQureg@@V?$vector@HV?$allocator@H@std@@@std@@1HH@Z
	??$gpu_statevec_anyCtrlSwap_subA@$01@@YAXUQureg@@V?$vector@HV?$allocator@H@std@@@std@@1HH@Z
	??$gpu_statevec_anyCtrlSwap_subA@$02@@YAXUQureg@@V?$vector@HV?$allocator@H@std@@@std@@1HH@Z
	??$gpu_statevec_anyCtrlSwap_subA@$03@@YAXUQureg@@V?$vector@HV?$allocator@H@std@@@std@@1HH@Z
	??$gpu_statevec_anyCtrlSwap_subA@$04@@YAXUQureg@@V?$vector@HV?$allocator@H@std@@@std@@1HH@Z
	??$gpu_statevec_anyCtrlSwap_subA@$0?0@@YAXUQureg@@V?$vector@HV?$allocator@H@std@@@std@@1HH@Z
	??$gpu_statevec_anyCtrlSwap_subA@$0A@@@YAXUQureg@@V?$vector@HV?$allocator@H@std@@@std@@1HH@Z
	??$gpu_statevec_anyCtrlSwap_subB@$00@@YAXUQureg@@V?$vector@HV?$allocator@H@std@@@std@@1@Z
	??$gpu_statevec_anyCtrlSwap_subB@$01@@YAXUQureg@@V?$vector@HV?$allocator@H@std@@@std@@1@Z
	??$gpu_statevec_anyCtrlSwap_subB@$02@@YAXUQureg@@V?$vector@HV?$allocator@H@std@@@std@@1@Z
	??$gpu_statevec_anyCtrlSwap_subB@$03@@YAXUQureg@@V?$vector@HV?$allocator@H@std@@@std@@1@Z
	??$gpu_statevec_anyCtrlSwap_subB@$04@@YAXUQureg@@V?$vector@HV?$allocator@H@std@@@std@@1@Z
	??$gpu_statevec_anyCtrlSwap_subB@$0?0@@YAXUQureg@@V?$vector@HV?$allocator@H@std@@@std@@1@Z
	??$gpu_statevec_anyCtrlSwap_subB@$0A@@@YAXUQureg@@V?$vector@HV?$allocator@H@std@@@std@@1@Z
	??$gpu_statevec_anyCtrlSwap_subC@$00@@YAXUQureg@@V?$vector@HV?$allocator@H@std@@@std@@1HH@Z
	??$gpu_statevec_anyCtrlSwap_subC@$01@@YAXUQureg@@V?$vector@HV?$allocator@H@std@@@std@@1HH@Z
	??$gpu_statevec_anyCtrlSwap_subC@$02@@YAXUQureg@@V?$vector@HV?$allocator@H@std@@@std@@1HH@Z
	??$gpu_statevec_anyCtrlSwap_subC@$03@@YAXUQureg@@V?$vector@HV?$allocator@H@std@@@std@@1HH@Z
	??$gpu_statevec_anyCtrlSwap_subC@$04@@YAXUQureg@@V?$vector@HV?$allocator@H@std@@@std@@1HH@Z
	??$gpu_statevec_anyCtrlSwap_subC@$0?0@@YAXUQureg@@V?$vector@HV?$allocator@H@std@@@std@@1HH@Z
	??$gpu_statevec_anyCtrlSwap_subC@$0A@@@YAXUQureg@@V?$vector@HV?$allocator@H@std@@@std@@1HH@Z
	??$gpu_statevec_anyCtrlTwoTargDenseMatr_sub@$00@@YAXUQureg@@V?$vector@HV?$allocator@H@std@@@std@@1HHUCompMatr2@@@Z
	??$gpu_statevec_anyCtrlTwoTargDenseMatr_sub@$01@@YAXUQureg@@V?$vector@HV?$allocator@H@std@@@std@@1HHUCompMatr2@@@Z
	??$gpu_statevec_anyCtrlTwoTargDenseMatr_sub@$02@@YAXUQureg@@V?$vector@HV?$allocator@H@std@@@std@@1HHUCompMatr2@@@Z
	??$gpu_statevec_anyCtrlTwoTargDenseMatr_sub@$03@@YAXUQureg@@V?$vector@HV?$allocator@H@std@@@std@@1HHUCompMatr2@@@Z
	??$gpu_statevec_anyCtrlTwoTargDenseMatr_sub@$04@@YAXUQureg@@V?$vector@HV?$allocator@H@std@@@std@@1HHUCompMatr2@@@Z
	??$gpu_statevec_anyCtrlTwoTargDenseMatr_sub@$0?0@@YAXUQureg@@V?$vector@HV?$allocator@H@std@@@std@@1HHUCompMatr2@@@Z
	??$gpu_statevec_anyCtrlTwoTargDenseMatr_sub@$0A@@@YAXUQureg@@V?$vector@HV?$allocator@H@std@@@std@@1HHUCompMatr2@@@Z
	??$gpu_statevec_anyCtrlTwoTargDiagMatr_sub@$00@@YAXUQureg@@V?$vector@HV?$allocator@H@std@@@std@@1HHUDiagMatr2@@@Z
	??$gpu_statevec_anyCtrlTwoTargDiagMatr_sub@$01@@YAXUQureg@@V?$vector@HV?$allocator@H@std@@@std@@1HHUDiagMatr2@@@Z
	??$gpu_statevec_anyCtrlTwoTargDiagMatr_sub@$02@@YAXUQureg@@V?$vector@HV?$allocator@H@std@@@std@@1HHUDiagMatr2@@@Z
	??$gpu_statevec_anyCtrlTwoTargDiagMatr_sub@$03@@YAXUQureg@@V?$vector@HV?$allocator@H@std@@@std@@1HHUDiagMatr2@@@Z
	??$gpu_statevec_anyCtrlTwoTargDiagMatr_sub@$04@@YAXUQureg@@V?$vector@HV?$allocator@H@std@@@std@@1HHUDiagMatr2@@@Z
	??$gpu_statevec_anyCtrlTwoTargDiagMatr_sub@$0?0@@YAXUQureg@@V?$vector@HV?$allocator@H@std@@@std@@1HHUDiagMatr2@@@Z
	??$gpu_statevec_anyCtrlTwoTargDiagMatr_sub@$0A@@@YAXUQureg@@V?$vector@HV?$allocator@H@std@@@std@@1HHUDiagMatr2@@@Z
	??$gpu_statevec_calcExpecFullStateDiagMatr_sub@$00$00@@YA?AV?$complex@N@std@@UQureg@@UFullStateDiagMatr@@V01@@Z
	??$gpu_statevec_calcExpecFullStateDiagMatr_sub@$00$0A@@@YA?AV?$complex@N@std@@UQureg@@UFullStateDiagMatr@@V01@@Z
	??$gpu_statevec_calcExpecFullStateDiagMatr_sub@$0A@$00@@YA?AV?$complex@N@std@@UQureg@@UFullStateDiagMatr@@V01@@Z
	??$gpu_statevec_calcExpecFullStateDiagMatr_sub@$0A@$0A@@@YA?AV?$complex@N@std@@UQureg@@UFullStateDiagMatr@@V01@@Z
	??$gpu_statevec_calcProbOfMultiQubitOutcome_sub@$00@@YANUQureg@@V?$vector@HV?$allocator@H@std@@@std@@1@Z
	??$gpu_statevec_calcProbOfMultiQubitOutcome_sub@$01@@YANUQureg@@V?$vector@HV?$allocator@H@std@@@std@@1@Z
	??$gpu_statevec_calcProbOfMultiQubitOutcome_sub@$02@@YANUQureg@@V?$vector@HV?$allocator@H@std@@@std@@1@Z
	??$gpu_statevec_calcProbOfMultiQubitOutcome_sub@$03@@YANUQureg@@V?$vector@HV?$allocator@H@std@@@std@@1@Z
	??$gpu_statevec_calcProbOfMultiQubitOutcome_sub@$04@@YANUQureg@@V?$vector@HV?$allocator@H@std@@@std@@1@Z
	??$gpu_statevec_calcProbOfMultiQubitOutcome_sub@$0?0@@YANUQureg@@V?$vector@HV?$allocator@H@std@@@std@@1@Z
	??$gpu_statevec_calcProbOfMultiQubitOutcome_sub@$0A@@@YANUQureg@@V?$vector@HV?$allocator@H@std@@@std@@1@Z
	??$gpu_statevec_calcProbsOfAllMultiQubitOutcomes_sub@$00@@YAXPEANUQureg@@V?$vector@HV?$allocator@H@std@@@std@@@Z
	??$gpu_statevec_calcProbsOfAllMultiQubitOutcomes_sub@$01@@YAXPEANUQureg@@V?$vector@HV?$allocator@H@std@@@std@@@Z
	??$gpu_statevec_calcProbsOfAllMultiQubitOutcomes_sub@$02@@YAXPEANUQureg@@V?$vector@HV?$allocator@H@std@@@std@@@Z
	??$gpu_statevec_calcProbsOfAllMultiQubitOutcomes_sub@$03@@YAXPEANUQureg@@V?$vector@HV?$allocator@H@std@@@std@@@Z
	??$gpu_statevec_calcProbsOfAllMultiQubitOutcomes_sub@$04@@YAXPEANUQureg@@V?$vector@HV?$allocator@H@std@@@std@@@Z
	??$gpu_statevec_calcProbsOfAllMultiQubitOutcomes_sub@$0?0@@YAXPEANUQureg@@V?$vector@HV?$allocator@H@std@@@std@@@Z
	??$gpu_statevec_calcProbsOfAllMultiQubitOutcomes_sub@$0A@@@YAXPEANUQureg@@V?$vector@HV?$allocator@H@std@@@std@@@Z
	??$gpu_statevec_multiQubitProjector_sub@$00@@YAXUQureg@@V?$vector@HV?$allocator@H@std@@@std@@1N@Z
	??$gpu_statevec_multiQubitProjector_sub@$01@@YAXUQureg@@V?$vector@HV?$allocator@H@std@@@std@@1N@Z
	??$gpu_statevec_multiQubitProjector_sub@$02@@YAXUQureg@@V?$vector@HV?$allocator@H@std@@@std@@1N@Z
	??$gpu_statevec_multiQubitProjector_sub@$03@@YAXUQureg@@V?$vector@HV?$allocator@H@std@@@std@@1N@Z
	??$gpu_statevec_multiQubitProjector_sub@$04@@YAXUQureg@@V?$vector@HV?$allocator@H@std@@@std@@1N@Z
	??$gpu_statevec_multiQubitProjector_sub@$0?0@@YAXUQureg@@V?$vector@HV?$allocator@H@std@@@std@@1N@Z
	??$gpu_statevec_multiQubitProjector_sub@$0A@@@YAXUQureg@@V?$vector@HV?$allocator@H@std@@@std@@1N@Z
	??$gpu_statevec_packAmpsIntoBuffer@$00@@YA_JUQureg@@V?$vector@HV?$allocator@H@std@@@std@@1@Z
	??$gpu_statevec_packAmpsIntoBuffer@$01@@YA_JUQureg@@V?$vector@HV?$allocator@H@std@@@std@@1@Z
	??$gpu_statevec_packAmpsIntoBuffer@$02@@YA_JUQureg@@V?$vector@HV?$allocator@H@std@@@std@@1@Z
	??$gpu_statevec_packAmpsIntoBuffer@$03@@YA_JUQureg@@V?$vector@HV?$allocator@H@std@@@std@@1@Z
	??$gpu_statevec_packAmpsIntoBuffer@$04@@YA_JUQureg@@V?$vector@HV?$allocator@H@std@@@std@@1@Z
	??$gpu_statevec_packAmpsIntoBuffer@$0?0@@YA_JUQureg@@V?$vector@HV?$allocator@H@std@@@std@@1@Z
	??$gpu_statevec_packAmpsIntoBuffer@$0A@@@YA_JUQureg@@V?$vector@HV?$allocator@H@std@@@std@@1@Z
	??$gpu_statevector_anyCtrlAnyTargZOrPhaseGadget_sub@$00@@YAXUQureg@@V?$vector@HV?$allocator@H@std@@@std@@11V?$complex@N@2@2@Z
	??$gpu_statevector_anyCtrlAnyTargZOrPhaseGadget_sub@$01@@YAXUQureg@@V?$vector@HV?$allocator@H@std@@@std@@11V?$complex@N@2@2@Z
	??$gpu_statevector_anyCtrlAnyTargZOrPhaseGadget_sub@$02@@YAXUQureg@@V?$vector@HV?$allocator@H@std@@@std@@11V?$complex@N@2@2@Z
	??$gpu_statevector_anyCtrlAnyTargZOrPhaseGadget_sub@$03@@YAXUQureg@@V?$vector@HV?$allocator@H@std@@@std@@11V?$complex@N@2@2@Z
	??$gpu_statevector_anyCtrlAnyTargZOrPhaseGadget_sub@$04@@YAXUQureg@@V?$vector@HV?$allocator@H@std@@@std@@11V?$complex@N@2@2@Z
	??$gpu_statevector_anyCtrlAnyTargZOrPhaseGadget_sub@$0?0@@YAXUQureg@@V?$vector@HV?$allocator@H@std@@@std@@11V?$complex@N@2@2@Z
	??$gpu_statevector_anyCtrlAnyTargZOrPhaseGadget_sub@$0A@@@YAXUQureg@@V?$vector@HV?$allocator@H@std@@@std@@11V?$complex@N@2@2@Z
	??$gpu_statevector_anyCtrlPauliTensorOrGadget_subA@$00$00@@YAXUQureg@@V?$vector@HV?$allocator@H@std@@@std@@1111V?$complex@N@2@2@Z
	??$gpu_statevector_anyCtrlPauliTensorOrGadget_subA@$00$01@@YAXUQureg@@V?$vector@HV?$allocator@H@std@@@std@@1111V?$complex@N@2@2@Z
	??$gpu_statevector_anyCtrlPauliTensorOrGadget_subA@$00$02@@YAXUQureg@@V?$vector@HV?$allocator@H@std@@@std@@1111V?$complex@N@2@2@Z
	??$gpu_statevector_anyCtrlPauliTensorOrGadget_subA@$00$03@@YAXUQureg@@V?$vector@HV?$allocator@H@std@@@std@@1111V?$complex@N@2@2@Z
	??$gpu_statevector_anyCtrlPauliTensorOrGadget_subA@$00$04@@YAXUQureg@@V?$vector@HV?$allocator@H@std@@@std@@1111V?$complex@N@2@2@Z
	??$gpu_statevector_anyCtrlPauliTensorOrGadget_subA@$00$0?0@@YAXUQureg@@V?$vector@HV?$allocator@H@std@@@std@@1111V?$complex@N@2@2@Z
	??$gpu_statevector_anyCtrlPauliTensorOrGadget_subA@$00$0A@@@YAXUQureg@@V?$vector@HV?$allocator@H@std@@@std@@1111V?$complex@N@2@2@Z
	??$gpu_statevector_anyCtrlPauliTensorOrGadget_subA@$01$00@@YAXUQureg@@V?$vector@HV?$allocator@H@std@@@std@@1111V?$complex@N@2@2@Z
	??$gpu_statevector_anyCtrlPauliTensorOrGadget_subA@$01$01@@YAXUQureg@@V?$vector@HV?$allocator@H@std@@@std@@1111V?$complex@N@2@2@Z
	??$gpu_statevector_anyCtrlPauliTensorOrGadget_subA@$01$02@@YAXUQureg@@V?$vector@HV?$allocator@H@std@@@std@@1111V?$complex@N@2@2@Z
	??$gpu_statevector_anyCtrlPauliTensorOrGadget_subA@$01$03@@YAXUQureg@@V?$vector@HV?$allocator@H@std@@@std@@1111V?$complex@N@2@2@Z
	??$gpu_statevector_anyCtrlPauliTensorOrGadget_subA@$01$04@@YAXUQureg@@V?$vector@HV?$allocator@H@std@@@std@@1111V?$complex@N@2@2@Z
	??$gpu_statevector_anyCtrlPauliTensorOrGadget_subA@$01$0?0@@YAXUQureg@@V?$vector@HV?$allocator@H@std@@@std@@1111V?$complex@N@2@2@Z
	??$gpu_statevector_anyCtrlPauliTensorOrGadget_subA@$01$0A@@@YAXUQureg@@V?$vector@HV?$allocator@H@std@@@std@@1111V?$complex@N@2@2@Z
	??$gpu_statevector_anyCtrlPauliTensorOrGadget_subA@$02$00@@YAXUQureg@@V?$vector@HV?$allocator@H@std@@@std@@1111V?$complex@N@2@2@Z
	??$gpu_statevector_anyCtrlPauliTensorOrGadget_subA@$02$01@@YAXUQureg@@V?$vector@HV?$allocator@H@std@@@std@@1111V?$complex@N@2@2@Z
	??$gpu_statevector_anyCtrlPauliTensorOrGadget_subA@$02$02@@YAXUQureg@@V?$vector@HV?$allocator@H@std@@@std@@1111V?$complex@N@2@2@Z
	??$gpu_statevector_anyCtrlPauliTensorOrGadget_subA@$02$03@@YAXUQureg@@V?$vector@HV?$allocator@H@std@@@std@@1111V?$complex@N@2@2@Z
	??$gpu_statevector_anyCtrlPauliTensorOrGadget_subA@$02$04@@YAXUQureg@@V?$vector@HV?$allocator@H@std@@@std@@1111V?$complex@N@2@2@Z
	??$gpu_statevector_anyCtrlPauliTensorOrGadget_subA@$02$0?0@@YAXUQureg@@V?$vector@HV?$allocator@H@std@@@std@@1111V?$complex@N@2@2@Z
	??$gpu_statevector_anyCtrlPauliTensorOrGadget_subA@$02$0A@@@YAXUQureg@@V?$vector@HV?$allocator@H@std@@@std@@1111V?$complex@N@2@2@Z
	??$gpu_statevector_anyCtrlPauliTensorOrGadget_subA@$03$00@@YAXUQureg@@V?$vector@HV?$allocator@H@std@@@std@@1111V?$complex@N@2@2@Z
	??$gpu_statevector_anyCtrlPauliTensorOrGadget_subA@$03$01@@YAXUQureg@@V?$vector@HV?$allocator@H@std@@@std@@1111V?$complex@N@2@2@Z
	??$gpu_statevector_anyCtrlPauliTensorOrGadget_subA@$03$02@@YAXUQureg@@V?$vector@HV?$allocator@H@std@@@std@@1111V?$complex@N@2@2@Z
	??$gpu_statevector_anyCtrlPauliTensorOrGadget_subA@$03$03@@YAXUQureg@@V?$vector@HV?$allocator@H@std@@@std@@1111V?$complex@N@2@2@Z
	??$gpu_statevector_anyCtrlPauliTensorOrGadget_subA@$03$04@@YAXUQureg@@V?$vector@HV?$allocator@H@std@@@std@@1111V?$complex@N@2@2@Z
	??$gpu_statevector_anyCtrlPauliTensorOrGadget_subA@$03$0?0@@YAXUQureg@@V?$vector@HV?$allocator@H@std@@@std@@1111V?$complex@N@2@2@Z
	??$gpu_statevector_anyCtrlPauliTensorOrGadget_subA@$03$0A@@@YAXUQureg@@V?$vector@HV?$allocator@H@std@@@std@@1111V?$complex@N@2@2@Z
	??$gpu_statevector_anyCtrlPauliTensorOrGadget_subA@$04$00@@YAXUQureg@@V?$vector@HV?$allocator@H@std@@@std@@1111V?$complex@N@2@2@Z
	??$gpu_statevector_anyCtrlPauliTensorOrGadget_subA@$04$01@@YAXUQureg@@V?$vector@HV?$allocator@H@std@@@std@@1111V?$complex@N@2@2@Z
	??$gpu_statevector_anyCtrlPauliTensorOrGadget_subA@$04$02@@YAXUQureg@@V?$vector@HV?$allocator@H@std@@@std@@1111V?$complex@N@2@2@Z
	??$gpu_statevector_anyCtrlPauliTensorOrGadget_subA@$04$03@@YAXUQureg@@V?$vector@HV?$allocator@H@std@@@std@@1111V?$complex@N@2@2@Z
	??$gpu_statevector_anyCtrlPauliTensorOrGadget_subA@$04$04@@YAXUQureg@@V?$vector@HV?$allocator@H@std@@@std@@1111V?$complex@N@2@2@Z
	??$gpu_statevector_anyCtrlPauliTensorOrGadget_subA@$04$0?0@@YAXUQureg@@V?$vector@HV?$allocator@H@std@@@std@@1111V?$complex@N@2@2@Z
	??$gpu_statevector_anyCtrlPauliTensorOrGadget_subA@$04$0A@@@YAXUQureg@@V?$vector@HV?$allocator@H@std@@@std@@1111V?$complex@N@2@2@Z
	??$gpu_statevector_anyCtrlPauliTensorOrGadget_subA@$0?0$00@@YAXUQureg@@V?$vector@HV?$allocator@H@std@@@std@@1111V?$complex@N@2@2@Z
	??$gpu_statevector_anyCtrlPauliTensorOrGadget_subA@$0?0$01@@YAXUQureg@@V?$vector@HV?$allocator@H@std@@@std@@1111V?$complex@N@2@2@Z
	??$gpu_statevector_anyCtrlPauliTensorOrGadget_subA@$0?0$02@@YAXUQureg@@V?$vector@HV?$allocator@H@std@@@std@@1111V?$complex@N@2@2@Z
	??$gpu_statevector_anyCtrlPauliTensorOrGadget_subA@$0?0$03@@YAXUQureg@@V?$vector@HV?$allocator@H@std@@@std@@1111V?$complex@N@2@2@Z
	??$gpu_statevector_anyCtrlPauliTensorOrGadget_subA@$0?0$04@@YAXUQureg@@V?$vector@HV?$allocator@H@std@@@std@@1111V?$complex@N@2@2@Z
	??$gpu_statevector_anyCtrlPauliTensorOrGadget_subA@$0?0$0?0@@YAXUQureg@@V?$vector@HV?$allocator@H@std@@@std@@1111V?$complex@N@2@2@Z
	??$gpu_statevector_anyCtrlPauliTensorOrGadget_subA@$0?0$0A@@@YAXUQureg@@V?$vector@HV?$allocator@H@std@@@std@@1111V?$complex@N@2@2@Z
	??$gpu_statevector_anyCtrlPauliTensorOrGadget_subA@$0A@$00@@YAXUQureg@@V?$vector@HV?$allocator@H@std@@@std@@1111V?$complex@N@2@2@Z
	??$gpu_statevector_anyCtrlPauliTensorOrGadget_subA@$0A@$01@@YAXUQureg@@V?$vector@HV?$allocator@H@std@@@std@@1111V?$complex@N@2@2@Z
	??$gpu_statevector_anyCtrlPauliTensorOrGadget_subA@$0A@$02@@YAXUQureg@@V?$vector@HV?$allocator@H@std@@@std@@1111V?$complex@N@2@2@Z
	??$gpu_statevector_anyCtrlPauliTensorOrGadget_subA@$0A@$03@@YAXUQureg@@V?$vector@HV?$allocator@H@std@@@std@@1111V?$complex@N@2@2@Z
	??$gpu_statevector_anyCtrlPauliTensorOrGadget_subA@$0A@$04@@YAXUQureg@@V?$vector@HV?$allocator@H@std@@@std@@1111V?$complex@N@2@2@Z
	??$gpu_statevector_anyCtrlPauliTensorOrGadget_subA@$0A@$0?0@@YAXUQureg@@V?$vector@HV?$allocator@H@std@@@std@@1111V?$complex@N@2@2@Z
	??$gpu_statevector_anyCtrlPauliTensorOrGadget_subA@$0A@$0A@@@YAXUQureg@@V?$vector@HV?$allocator@H@std@@@std@@1111V?$complex@N@2@2@Z
	??$gpu_statevector_anyCtrlPauliTensorOrGadget_subB@$00@@YAXUQureg@@V?$vector@HV?$allocator@H@std@@@std@@1111V?$complex@N@2@2_J@Z
	??$gpu_statevector_anyCtrlPauliTensorOrGadget_subB@$01@@YAXUQureg@@V?$vector@HV?$allocator@H@std@@@std@@1111V?$complex@N@2@2_J@Z
	??$gpu_statevector_anyCtrlPauliTensorOrGadget_subB@$02@@YAXUQureg@@V?$vector@HV?$allocator@H@std@@@std@@1111V?$complex@N@2@2_J@Z
	??$gpu_statevector_anyCtrlPauliTensorOrGadget_subB@$03@@YAXUQureg@@V?$vector@HV?$allocator@H@std@@@std@@1111V?$complex@N@2@2_J@Z
	??$gpu_statevector_anyCtrlPauliTensorOrGadget_subB@$04@@YAXUQureg@@V?$vector@HV?$allocator@H@std@@@std@@1111V?$complex@N@2@2_J@Z
	??$gpu_statevector_anyCtrlPauliTensorOrGadget_subB@$0?0@@YAXUQureg@@V?$vector@HV?$allocator@H@std@@@std@@1111V?$complex@N@2@2_J@Z
	??$gpu_statevector_anyCtrlPauliTensorOrGadget_subB@$0A@@@YAXUQureg@@V?$vector@HV?$allocator@H@std@@@std@@1111V?$complex@N@2@2_J@Z
	??$iota@V?$_Vector_iterator@V?$_Vector_val@U?$_Simple_types@H@std@@@std@@@std@@H@std@@YAXV?$_Vector_iterator@V?$_Vector_val@U?$_Simple_types@H@std@@@std@@@0@0H@Z
	??$isNonNull@PEAH@@YA_NPEAH@Z
	??$isNonNull@PEAPEAPEAV?$complex@N@std@@@@YA_NPEAPEAPEAV?$complex@N@std@@@Z
	??$isNonNull@PEAPEAV?$complex@N@std@@@@YA_NPEAPEAV?$complex@N@std@@@Z
	??$isNonNull@PEAUPauliStr@@@@YA_NPEAUPauliStr@@@Z
	??$isNonNull@PEAV?$complex@N@std@@@@YA_NPEAV?$complex@N@std@@@Z
	??$localiser_statevec_anyCtrlAnyTargAnyMatr@UCompMatr1@@@@YAXUQureg@@V?$vector@HV?$allocator@H@std@@@std@@11UCompMatr1@@_N@Z
	??$localiser_statevec_anyCtrlAnyTargAnyMatr@UCompMatr2@@@@YAXUQureg@@V?$vector@HV?$allocator@H@std@@@std@@11UCompMatr2@@_N@Z
	??$localiser_statevec_anyCtrlAnyTargAnyMatr@UCompMatr@@@@YAXUQureg@@V?$vector@HV?$allocator@H@std@@@std@@11UCompMatr@@_N@Z
	??$localiser_statevec_anyCtrlAnyTargAnyMatr@UDiagMatr1@@@@YAXUQureg@@V?$vector@HV?$allocator@H@std@@@std@@11UDiagMatr1@@_N@Z
	??$localiser_statevec_anyCtrlAnyTargAnyMatr@UDiagMatr2@@@@YAXUQureg@@V?$vector@HV?$allocator@H@std@@@std@@11UDiagMatr2@@_N@Z
	??$localiser_statevec_anyCtrlAnyTargAnyMatr@UDiagMatr@@@@YAXUQureg@@V?$vector@HV?$allocator@H@std@@@std@@11UDiagMatr@@_N@Z
	??$log2@H$0A@@@YANH@Z
	??$log2@_J$0A@@@YAN_J@Z
	??$log2@_K$0A@@@YAN_K@Z
	??$log@N@std@@YA?AV?$complex@N@0@AEBV10@@Z
	??$lookup_classname@PEBD@?$_Regex_traits@D@std@@QEBAFPEBD0_N@Z
	??$markMatrixAsSynced@UCompMatr@@@@YAXUCompMatr@@@Z
	??$markMatrixAsSynced@UDiagMatr@@@@YAXUDiagMatr@@@Z
	??$markMatrixAsSynced@UFullStateDiagMatr@@@@YAXUFullStateDiagMatr@@@Z
	??$populateDistributedVectorRowLabels@UFullStateDiagMatr@@@@YAXAEAV?$vector@V?$basic_string@DU?$char_traits@D@std@@V?$allocator@D@2@@std@@V?$allocator@V?$basic_string@DU?$char_traits@D@std@@V?$allocator@D@2@@std@@@2@@std@@0UFullStateDiagMatr@@UMatrixQuadrantInds@@@Z
	??$populateDistributedVectorRowLabels@UQureg@@@@YAXAEAV?$vector@V?$basic_string@DU?$char_traits@D@std@@V?$allocator@D@2@@std@@V?$allocator@V?$basic_string@DU?$char_traits@D@std@@V?$allocator@D@2@@std@@@2@@std@@0UQureg@@UMatrixQuadrantInds@@@Z
	??$populateManyColumnQcompmatr@UCompMatr1@@@@YAXAEAV?$vector@V?$vector@V?$complex@N@std@@V?$allocator@V?$complex@N@std@@@2@@std@@V?$allocator@V?$vector@V?$complex@N@std@@V?$allocator@V?$complex@N@std@@@2@@std@@@2@@std@@_J1UCompMatr1@@@Z
	??$populateManyColumnQcompmatr@UCompMatr2@@@@YAXAEAV?$vector@V?$vector@V?$complex@N@std@@V?$allocator@V?$complex@N@std@@@2@@std@@V?$allocator@V?$vector@V?$complex@N@std@@V?$allocator@V?$complex@N@std@@@2@@std@@@2@@std@@_J1UCompMatr2@@@Z
	??$populateManyColumnQcompmatr@UCompMatr@@@@YAXAEAV?$vector@V?$vector@V?$complex@N@std@@V?$allocator@V?$complex@N@std@@@2@@std@@V?$allocator@V?$vector@V?$complex@N@std@@V?$allocator@V?$complex@N@std@@@2@@std@@@2@@std@@_J1UCompMatr@@@Z
	??$populateManyColumnQcompmatr@USuperOp@@@@YAXAEAV?$vector@V?$vector@V?$complex@N@std@@V?$allocator@V?$complex@N@std@@@2@@std@@V?$allocator@V?$vector@V?$complex@N@std@@V?$allocator@V?$complex@N@std@@@2@@std@@@2@@std@@_J1USuperOp@@@Z
	??$populateManyColumnQcompmatrFromPtr@PEAPEAV?$complex@N@std@@@@YAXAEAV?$vector@V?$vector@V?$complex@N@std@@V?$allocator@V?$complex@N@std@@@2@@std@@V?$allocator@V?$vector@V?$complex@N@std@@V?$allocator@V?$complex@N@std@@@2@@std@@@2@@std@@_J1PEAPEAV?$complex@N@1@@Z
	??$populateManyColumnQcompmatrFromPtr@PEAY01V?$complex@N@std@@@@YAXAEAV?$vector@V?$vector@V?$complex@N@std@@V?$allocator@V?$complex@N@std@@@2@@std@@V?$allocator@V?$vector@V?$complex@N@std@@V?$allocator@V?$complex@N@std@@@2@@std@@@2@@std@@_J1PEAY01V?$complex@N@1@@Z
	??$populateManyColumnQcompmatrFromPtr@PEAY03V?$complex@N@std@@@@YAXAEAV?$vector@V?$vector@V?$complex@N@std@@V?$allocator@V?$complex@N@std@@@2@@std@@V?$allocator@V?$vector@V?$complex@N@std@@V?$allocator@V?$complex@N@std@@@2@@std@@@2@@std@@_J1PEAY03V?$complex@N@1@@Z
	??$populateMatrixQuadrants@UCompMatr1@@@@YAXUMatrixQuadrantInds@@AEAV?$vector@V?$vector@V?$complex@N@std@@V?$allocator@V?$complex@N@std@@@2@@std@@V?$allocator@V?$vector@V?$complex@N@std@@V?$allocator@V?$complex@N@std@@@2@@std@@@2@@std@@111UCompMatr1@@@Z
	??$populateMatrixQuadrants@UCompMatr2@@@@YAXUMatrixQuadrantInds@@AEAV?$vector@V?$vector@V?$complex@N@std@@V?$allocator@V?$complex@N@std@@@2@@std@@V?$allocator@V?$vector@V?$complex@N@std@@V?$allocator@V?$complex@N@std@@@2@@std@@@2@@std@@111UCompMatr2@@@Z
	??$populateMatrixQuadrants@UCompMatr@@@@YAXUMatrixQuadrantInds@@AEAV?$vector@V?$vector@V?$complex@N@std@@V?$allocator@V?$complex@N@std@@@2@@std@@V?$allocator@V?$vector@V?$complex@N@std@@V?$allocator@V?$complex@N@std@@@2@@std@@@2@@std@@111UCompMatr@@@Z
	??$populateMatrixQuadrants@UDiagMatr1@@@@YAXUMatrixQuadrantInds@@AEAV?$vector@V?$vector@V?$complex@N@std@@V?$allocator@V?$complex@N@std@@@2@@std@@V?$allocator@V?$vector@V?$complex@N@std@@V?$allocator@V?$complex@N@std@@@2@@std@@@2@@std@@111UDiagMatr1@@@Z
	??$populateMatrixQuadrants@UDiagMatr2@@@@YAXUMatrixQuadrantInds@@AEAV?$vector@V?$vector@V?$complex@N@std@@V?$allocator@V?$complex@N@std@@@2@@std@@V?$allocator@V?$vector@V?$complex@N@std@@V?$allocator@V?$complex@N@std@@@2@@std@@@2@@std@@111UDiagMatr2@@@Z
	??$populateMatrixQuadrants@UDiagMatr@@@@YAXUMatrixQuadrantInds@@AEAV?$vector@V?$vector@V?$complex@N@std@@V?$allocator@V?$complex@N@std@@@2@@std@@V?$allocator@V?$vector@V?$complex@N@std@@V?$allocator@V?$complex@N@std@@@2@@std@@@2@@std@@111UDiagMatr@@@Z
	??$populateMatrixQuadrants@UFullStateDiagMatr@@@@YAXUMatrixQuadrantInds@@AEAV?$vector@V?$vector@V?$complex@N@std@@V?$allocator@V?$complex@N@std@@@2@@std@@V?$allocator@V?$vector@V?$complex@N@std@@V?$allocator@V?$complex@N@std@@@2@@std@@@2@@std@@111UFullStateDiagMatr@@@Z
	??$populateMatrixQuadrants@UPauliStrSum@@@@YAXUMatrixQuadrantInds@@AEAV?$vector@V?$vector@V?$complex@N@std@@V?$allocator@V?$complex@N@std@@@2@@std@@V?$allocator@V?$vector@V?$complex@N@std@@V?$allocator@V?$complex@N@std@@@2@@std@@@2@@std@@111UPauliStrSum@@@Z
	??$populateMatrixQuadrants@USuperOp@@@@YAXUMatrixQuadrantInds@@AEAV?$vector@V?$vector@V?$complex@N@std@@V?$allocator@V?$complex@N@std@@@2@@std@@V?$allocator@V?$vector@V?$complex@N@std@@V?$allocator@V?$complex@N@std@@@2@@std@@@2@@std@@111USuperOp@@@Z
	??$populateSingleColumnQcompmatr@UDiagMatr1@@@@YAXAEAV?$vector@V?$vector@V?$complex@N@std@@V?$allocator@V?$complex@N@std@@@2@@std@@V?$allocator@V?$vector@V?$complex@N@std@@V?$allocator@V?$complex@N@std@@@2@@std@@@2@@std@@_JUDiagMatr1@@@Z
	??$populateSingleColumnQcompmatr@UDiagMatr2@@@@YAXAEAV?$vector@V?$vector@V?$complex@N@std@@V?$allocator@V?$complex@N@std@@@2@@std@@V?$allocator@V?$vector@V?$complex@N@std@@V?$allocator@V?$complex@N@std@@@2@@std@@@2@@std@@_JUDiagMatr2@@@Z
	??$populateSingleColumnQcompmatr@UDiagMatr@@@@YAXAEAV?$vector@V?$vector@V?$complex@N@std@@V?$allocator@V?$complex@N@std@@@2@@std@@V?$allocator@V?$vector@V?$complex@N@std@@V?$allocator@V?$complex@N@std@@@2@@std@@@2@@std@@_JUDiagMatr@@@Z
	??$populateSingleColumnQcompmatr@UFullStateDiagMatr@@@@YAXAEAV?$vector@V?$vector@V?$complex@N@std@@V?$allocator@V?$complex@N@std@@@2@@std@@V?$allocator@V?$vector@V?$complex@N@std@@V?$allocator@V?$complex@N@std@@@2@@std@@@2@@std@@_JUFullStateDiagMatr@@@Z
	??$populateSingleColumnQcompmatr@UQureg@@@@YAXAEAV?$vector@V?$vector@V?$complex@N@std@@V?$allocator@V?$complex@N@std@@@2@@std@@V?$allocator@V?$vector@V?$complex@N@std@@V?$allocator@V?$complex@N@std@@@2@@std@@@2@@std@@_JUQureg@@@Z
	??$pow@HN$0A@@@YANHN@Z
	??$pow@N@std@@YA?AV?$complex@N@0@AEBV10@0@Z
	??$pow@N@std@@YA?AV?$complex@N@0@AEBV10@AEBN@Z
	??$pow@NH$0A@@@YANNH@Z
	??$printDenseSquareMatrix@UCompMatr1@@@@YAXUCompMatr1@@V?$basic_string@DU?$char_traits@D@std@@V?$allocator@D@2@@std@@@Z
	??$printDenseSquareMatrix@UCompMatr2@@@@YAXUCompMatr2@@V?$basic_string@DU?$char_traits@D@std@@V?$allocator@D@2@@std@@@Z
	??$printDenseSquareMatrix@UCompMatr@@@@YAXUCompMatr@@V?$basic_string@DU?$char_traits@D@std@@V?$allocator@D@2@@std@@@Z
	??$printDenseSquareMatrix@UQureg@@@@YAXUQureg@@V?$basic_string@DU?$char_traits@D@std@@V?$allocator@D@2@@std@@@Z
	??$printDenseSquareMatrix@USuperOp@@@@YAXUSuperOp@@V?$basic_string@DU?$char_traits@D@std@@V?$allocator@D@2@@std@@@Z
	??$printMatrixHeader@UCompMatr1@@@@YAXUCompMatr1@@_K@Z
	??$printMatrixHeader@UCompMatr2@@@@YAXUCompMatr2@@_K@Z
	??$printMatrixHeader@UCompMatr@@@@YAXUCompMatr@@_K@Z
	??$printMatrixHeader@UDiagMatr1@@@@YAXUDiagMatr1@@_K@Z
	??$printMatrixHeader@UDiagMatr2@@@@YAXUDiagMatr2@@_K@Z
	??$printMatrixHeader@UDiagMatr@@@@YAXUDiagMatr@@_K@Z
	??$printMatrixHeader@UFullStateDiagMatr@@@@YAXUFullStateDiagMatr@@_K@Z
	??$printVector@UDiagMatr1@@@@YAXUDiagMatr1@@V?$basic_string@DU?$char_traits@D@std@@V?$allocator@D@2@@std@@@Z
	??$printVector@UDiagMatr2@@@@YAXUDiagMatr2@@V?$basic_string@DU?$char_traits@D@std@@V?$allocator@D@2@@std@@@Z
	??$printVector@UDiagMatr@@@@YAXUDiagMatr@@V?$basic_string@DU?$char_traits@D@std@@V?$allocator@D@2@@std@@@Z
	??$printVector@UFullStateDiagMatr@@@@YAXUFullStateDiagMatr@@V?$basic_string@DU?$char_traits@D@std@@V?$allocator@D@2@@std@@@Z
	??$printVector@UQureg@@@@YAXUQureg@@V?$basic_string@DU?$char_traits@D@std@@V?$allocator@D@2@@std@@@Z
	??$printer_toStr@H@@YA?AV?$basic_string@DU?$char_traits@D@std@@V?$allocator@D@2@@std@@H@Z
	??$printer_toStr@H@@YA?AV?$basic_string@DU?$char_traits@D@std@@V?$allocator@D@2@@std@@V?$complex@H@1@@Z
	??$printer_toStr@I@@YA?AV?$basic_string@DU?$char_traits@D@std@@V?$allocator@D@2@@std@@I@Z
	??$printer_toStr@I@@YA?AV?$basic_string@DU?$char_traits@D@std@@V?$allocator@D@2@@std@@V?$complex@I@1@@Z
	??$printer_toStr@J@@YA?AV?$basic_string@DU?$char_traits@D@std@@V?$allocator@D@2@@std@@V?$complex@J@1@@Z
	??$printer_toStr@K@@YA?AV?$basic_string@DU?$char_traits@D@std@@V?$allocator@D@2@@std@@V?$complex@K@1@@Z
	??$printer_toStr@M@@YA?AV?$basic_string@DU?$char_traits@D@std@@V?$allocator@D@2@@std@@V?$complex@M@1@@Z
	??$printer_toStr@N@@YA?AV?$basic_string@DU?$char_traits@D@std@@V?$allocator@D@2@@std@@V?$complex@N@1@@Z
	??$printer_toStr@O@@YA?AV?$basic_string@DU?$char_traits@D@std@@V?$allocator@D@2@@std@@V?$complex@O@1@@Z
	??$printer_toStr@_J@@YA?AV?$basic_string@DU?$char_traits@D@std@@V?$allocator@D@2@@std@@V?$complex@_J@1@@Z
	??$printer_toStr@_J@@YA?AV?$basic_string@DU?$char_traits@D@std@@V?$allocator@D@2@@std@@_J@Z
	??$printer_toStr@_K@@YA?AV?$basic_string@DU?$char_traits@D@std@@V?$allocator@D@2@@std@@V?$complex@_K@1@@Z
	??$printer_toStr@_N@@YA?AV?$basic_string@DU?$char_traits@D@std@@V?$allocator@D@2@@std@@_N@Z
	??$regex_match@U?$char_traits@D@std@@V?$allocator@D@2@DV?$regex_traits@D@2@@std@@YA_NAEBV?$basic_string@DU?$char_traits@D@std@@V?$allocator@D@2@@0@AEBV?$basic_regex@DV?$regex_traits@D@std@@@0@W4match_flag_type@regex_constants@0@@Z
	??$regex_match@U?$char_traits@D@std@@V?$allocator@D@2@V?$allocator@V?$sub_match@V?$_String_const_iterator@V?$_String_val@U?$_Simple_types@D@std@@@std@@@std@@@std@@@2@DV?$regex_traits@D@2@@std@@YA_NAEBV?$basic_string@DU?$char_traits@D@std@@V?$allocator@D@2@@0@AEAV?$match_results@V?$_String_const_iterator@V?$_String_val@U?$_Simple_types@D@std@@@std@@@std@@V?$allocator@V?$sub_match@V?$_String_const_iterator@V?$_String_val@U?$_Simple_types@D@std@@@std@@@std@@@std@@@2@@0@AEBV?$basic_regex@DV?$regex_traits@D@std@@@0@W4match_flag_type@regex_constants@0@@Z
	??$regex_search@U?$char_traits@D@std@@V?$allocator@D@2@V?$allocator@V?$sub_match@V?$_String_const_iterator@V?$_String_val@U?$_Simple_types@D@std@@@std@@@std@@@std@@@2@DV?$regex_traits@D@2@@std@@YA_NAEBV?$basic_string@DU?$char_traits@D@std@@V?$allocator@D@2@@0@AEAV?$match_results@V?$_String_const_iterator@V?$_String_val@U?$_Simple_types@D@std@@@std@@@std@@V?$allocator@V?$sub_match@V?$_String_const_iterator@V?$_String_val@U?$_Simple_types@D@std@@@std@@@std@@@std@@@2@@0@AEBV?$basic_regex@DV?$regex_traits@D@std@@@0@W4match_flag_type@regex_constants@0@@Z
	??$setAndSyncDenseMatrElems@PEAPEAV?$complex@N@std@@@@YAXUCompMatr@@PEAPEAV?$complex@N@std@@@Z
	??$setAndSyncDenseMatrElems@V?$vector@V?$vector@V?$complex@N@std@@V?$allocator@V?$complex@N@std@@@2@@std@@V?$allocator@V?$vector@V?$complex@N@std@@V?$allocator@V?$complex@N@std@@@2@@std@@@2@@std@@@@YAXUCompMatr@@V?$vector@V?$vector@V?$complex@N@std@@V?$allocator@V?$complex@N@std@@@2@@std@@V?$allocator@V?$vector@V?$complex@N@std@@V?$allocator@V?$complex@N@std@@@2@@std@@@2@@std@@@Z
	??$setAndSyncKrausMapElems@PEAPEAPEAV?$complex@N@std@@@@YAXUKrausMap@@PEAPEAPEAV?$complex@N@std@@@Z
	??$setAndSyncKrausMapElems@V?$vector@V?$vector@V?$vector@V?$complex@N@std@@V?$allocator@V?$complex@N@std@@@2@@std@@V?$allocator@V?$vector@V?$complex@N@std@@V?$allocator@V?$complex@N@std@@@2@@std@@@2@@std@@V?$allocator@V?$vector@V?$vector@V?$complex@N@std@@V?$allocator@V?$complex@N@std@@@2@@std@@V?$allocator@V?$vector@V?$complex@N@std@@V?$allocator@V?$complex@N@std@@@2@@std@@@2@@std@@@2@@std@@@@YAXUKrausMap@@V?$vector@V?$vector@V?$vector@V?$complex@N@std@@V?$allocator@V?$complex@N@std@@@2@@std@@V?$allocator@V?$vector@V?$complex@N@std@@V?$allocator@V?$complex@N@std@@@2@@std@@@2@@std@@V?$allocator@V?$vector@V?$vector@V?$complex@N@std@@V?$allocator@V?$complex@N@std@@@2@@std@@V?$allocator@V?$vector@V?$complex@N@std@@V?$allocator@V?$complex@N@std@@@2@@std@@@2@@std@@@2@@std@@@Z
	??$setAndSyncSuperOpElems@PEAPEAV?$complex@N@std@@@@YAXUSuperOp@@PEAPEAV?$complex@N@std@@@Z
	??$setAndSyncSuperOpElems@V?$vector@V?$vector@V?$complex@N@std@@V?$allocator@V?$complex@N@std@@@2@@std@@V?$allocator@V?$vector@V?$complex@N@std@@V?$allocator@V?$complex@N@std@@@2@@std@@@2@@std@@@@YAXUSuperOp@@V?$vector@V?$vector@V?$complex@N@std@@V?$allocator@V?$complex@N@std@@@2@@std@@V?$allocator@V?$vector@V?$complex@N@std@@V?$allocator@V?$complex@N@std@@@2@@std@@@2@@std@@@Z
	??$setDenseElemsConj@PEAPEAV?$complex@N@std@@@@YAXPEAPEAV?$complex@N@std@@_J@Z
	??$setDenseElemsConj@PEAY01V?$complex@N@std@@@@YAXPEAY01V?$complex@N@std@@_J@Z
	??$setDenseElemsConj@PEAY03V?$complex@N@std@@@@YAXPEAY03V?$complex@N@std@@_J@Z
	??$setInitialHeapFlags@UCompMatr@@@@YAXUCompMatr@@@Z
	??$setInitialHeapFlags@UDiagMatr@@@@YAXUDiagMatr@@@Z
	??$setInitialHeapFlags@UFullStateDiagMatr@@@@YAXUFullStateDiagMatr@@@Z
	??$setRowLabelsToRanks@UFullStateDiagMatr@@@@YAXAEAV?$vector@V?$basic_string@DU?$char_traits@D@std@@V?$allocator@D@2@@std@@V?$allocator@V?$basic_string@DU?$char_traits@D@std@@V?$allocator@D@2@@std@@@2@@std@@AEAH_JUFullStateDiagMatr@@@Z
	??$setRowLabelsToRanks@UQureg@@@@YAXAEAV?$vector@V?$basic_string@DU?$char_traits@D@std@@V?$allocator@D@2@@std@@V?$allocator@V?$basic_string@DU?$char_traits@D@std@@V?$allocator@D@2@@std@@@2@@std@@AEAH_JUQureg@@@Z
	??$setSuperoperator@PEAPEAPEAV?$complex@N@std@@@@YAXPEAPEAV?$complex@N@std@@PEAPEAPEAV01@H_J@Z
	??$setSuperoperator@V?$vector@V?$vector@V?$vector@V?$complex@N@std@@V?$allocator@V?$complex@N@std@@@2@@std@@V?$allocator@V?$vector@V?$complex@N@std@@V?$allocator@V?$complex@N@std@@@2@@std@@@2@@std@@V?$allocator@V?$vector@V?$vector@V?$complex@N@std@@V?$allocator@V?$complex@N@std@@@2@@std@@V?$allocator@V?$vector@V?$complex@N@std@@V?$allocator@V?$complex@N@std@@@2@@std@@@2@@std@@@2@@std@@@@YAXPEAPEAV?$complex@N@std@@V?$vector@V?$vector@V?$vector@V?$complex@N@std@@V?$allocator@V?$complex@N@std@@@2@@std@@V?$allocator@V?$vector@V?$complex@N@std@@V?$allocator@V?$complex@N@std@@@2@@std@@@2@@std@@V?$allocator@V?$vector@V?$vector@V?$complex@N@std@@V?$allocator@V?$complex@N@std@@@2@@std@@V?$allocator@V?$vector@V?$complex@N@std@@V?$allocator@V?$complex@N@std@@@2@@std@@@2@@std@@@2@@1@H_J@Z
	??$setfill@D@std@@YA?AU?$_Fillobj@D@0@D@Z
	??$sqrt@H$0A@@@YANH@Z
	??$sqrt@_J$0A@@@YAN_J@Z
	??$sqrt@_K$0A@@@YAN_K@Z
	??$toStr@H@@YA?AV?$basic_string@DU?$char_traits@D@std@@V?$allocator@D@2@@std@@H@Z
	??$toStr@V?$complex@N@std@@@@YA?AV?$basic_string@DU?$char_traits@D@std@@V?$allocator@D@2@@std@@V?$complex@N@1@@Z
	??$toStr@_J@@YA?AV?$basic_string@DU?$char_traits@D@std@@V?$allocator@D@2@@std@@_J@Z
	??$transform_primary@PEAD@?$_Regex_traits@D@std@@QEBA?AV?$basic_string@DU?$char_traits@D@std@@V?$allocator@D@2@@1@PEAD0@Z
	??$transform_primary@PEBD@?$_Regex_traits@D@std@@QEBA?AV?$basic_string@DU?$char_traits@D@std@@V?$allocator@D@2@@1@PEBD0@Z
	??$transform_primary@V?$_String_iterator@V?$_String_val@U?$_Simple_types@D@std@@@std@@@std@@@?$_Regex_traits@D@std@@QEBA?AV?$basic_string@DU?$char_traits@D@std@@V?$allocator@D@2@@1@V?$_String_iterator@V?$_String_val@U?$_Simple_types@D@std@@@std@@@1@0@Z
	??$tryAllocVector@I@@YAXAEAV?$vector@IV?$allocator@I@std@@@std@@_JV?$function@$$A6AXXZ@1@@Z
	??$tryAllocVector@N@@YAXAEAV?$vector@NV?$allocator@N@std@@@std@@_JV?$function@$$A6AXXZ@1@@Z
	??$tryAllocVector@PEAV?$complex@N@std@@@@YAXAEAV?$vector@PEAV?$complex@N@std@@V?$allocator@PEAV?$complex@N@std@@@2@@std@@_JV?$function@$$A6AXXZ@1@@Z
	??$tryAllocVector@V?$complex@N@std@@@@YAXAEAV?$vector@V?$complex@N@std@@V?$allocator@V?$complex@N@std@@@2@@std@@_JV?$function@$$A6AXXZ@1@@Z
	??$uninitialized_copy@PEAPEAUBlockData@@PEAPEAU1@@std@@YAPEAPEAUBlockData@@QEAPEAU1@0PEAPEAU1@@Z
	??$uninitialized_copy@PEAPEAUGateOp@@PEAPEAU1@@std@@YAPEAPEAUGateOp@@QEAPEAU1@0PEAPEAU1@@Z
	??$uninitialized_fill@PEAV?$_List_unchecked_iterator@V?$_List_val@U?$_List_simple_types@U?$pair@$$CBHH@std@@@std@@@std@@@std@@V12@@std@@YAXQEAV?$_List_unchecked_iterator@V?$_List_val@U?$_List_simple_types@U?$pair@$$CBHH@std@@@std@@@std@@@0@0AEBV10@@Z
	??$uninitialized_fill@PEAV?$_List_unchecked_iterator@V?$_List_val@U?$_List_simple_types@U?$pair@$$CB_KV?$vector@V?$tuple@UPauliStr@@V?$complex@N@std@@@std@@V?$allocator@V?$tuple@UPauliStr@@V?$complex@N@std@@@std@@@2@@std@@@std@@@std@@@std@@@std@@V12@@std@@YAXQEAV?$_List_unchecked_iterator@V?$_List_val@U?$_List_simple_types@U?$pair@$$CB_KV?$vector@V?$tuple@UPauliStr@@V?$complex@N@std@@@std@@V?$allocator@V?$tuple@UPauliStr@@V?$complex@N@std@@@std@@@2@@std@@@std@@@std@@@std@@@0@0AEBV10@@Z
	??$use_facet@V?$codecvt@DDU_Mbstatet@@@std@@@std@@YAAEBV?$codecvt@DDU_Mbstatet@@@0@AEBVlocale@0@@Z
	??$use_facet@V?$collate@D@std@@@std@@YAAEBV?$collate@D@0@AEBVlocale@0@@Z
	??$use_facet@V?$ctype@D@std@@@std@@YAAEBV?$ctype@D@0@AEBVlocale@0@@Z
	??$util_getGpuMemPtr@UCompMatr@@@@YAPEAV?$complex@N@std@@UCompMatr@@@Z
	??$util_getGpuMemPtr@UDiagMatr@@@@YAPEAV?$complex@N@std@@UDiagMatr@@@Z
	??$util_getGpuMemPtr@UFullStateDiagMatr@@@@YAPEAV?$complex@N@std@@UFullStateDiagMatr@@@Z
	??$util_getGpuMemPtr@USuperOp@@@@YAPEAV?$complex@N@std@@USuperOp@@@Z
	??$util_getMatrixDim@UCompMatr1@@@@YA_JUCompMatr1@@@Z
	??$util_getMatrixDim@UCompMatr2@@@@YA_JUCompMatr2@@@Z
	??$util_getMatrixDim@UCompMatr@@@@YA_JUCompMatr@@@Z
	??$util_getMatrixDim@UDiagMatr1@@@@YA_JUDiagMatr1@@@Z
	??$util_getMatrixDim@UDiagMatr2@@@@YA_JUDiagMatr2@@@Z
	??$util_getMatrixDim@UDiagMatr@@@@YA_JUDiagMatr@@@Z
	??$util_getMatrixDim@UFullStateDiagMatr@@@@YA_JUFullStateDiagMatr@@@Z
	??$util_getMatrixTypeName@UCompMatr1@@@@YA?AV?$basic_string@DU?$char_traits@D@std@@V?$allocator@D@2@@std@@XZ
	??$util_getMatrixTypeName@UCompMatr2@@@@YA?AV?$basic_string@DU?$char_traits@D@std@@V?$allocator@D@2@@std@@XZ
	??$util_getMatrixTypeName@UCompMatr@@@@YA?AV?$basic_string@DU?$char_traits@D@std@@V?$allocator@D@2@@std@@XZ
	??$util_getMatrixTypeName@UDiagMatr1@@@@YA?AV?$basic_string@DU?$char_traits@D@std@@V?$allocator@D@2@@std@@XZ
	??$util_getMatrixTypeName@UDiagMatr2@@@@YA?AV?$basic_string@DU?$char_traits@D@std@@V?$allocator@D@2@@std@@XZ
	??$util_getMatrixTypeName@UDiagMatr@@@@YA?AV?$basic_string@DU?$char_traits@D@std@@V?$allocator@D@2@@std@@XZ
	??$util_getMatrixTypeName@UFullStateDiagMatr@@@@YA?AV?$basic_string@DU?$char_traits@D@std@@V?$allocator@D@2@@std@@XZ
	??$util_isDistributedMatrix@UCompMatr1@@@@YA_NUCompMatr1@@@Z
	??$util_isDistributedMatrix@UCompMatr2@@@@YA_NUCompMatr2@@@Z
	??$util_isDistributedMatrix@UCompMatr@@@@YA_NUCompMatr@@@Z
	??$util_isDistributedMatrix@UDiagMatr1@@@@YA_NUDiagMatr1@@@Z
	??$util_isDistributedMatrix@UDiagMatr2@@@@YA_NUDiagMatr2@@@Z
	??$util_isDistributedMatrix@UDiagMatr@@@@YA_NUDiagMatr@@@Z
	??$util_isDistributedMatrix@UFullStateDiagMatr@@@@YA_NUFullStateDiagMatr@@@Z
	??$util_isGpuAcceleratedMatrix@UCompMatr1@@@@YA_NUCompMatr1@@@Z
	??$util_isGpuAcceleratedMatrix@UCompMatr2@@@@YA_NUCompMatr2@@@Z
	??$util_isGpuAcceleratedMatrix@UCompMatr@@@@YA_NUCompMatr@@@Z
	??$util_isGpuAcceleratedMatrix@UDiagMatr1@@@@YA_NUDiagMatr1@@@Z
	??$util_isGpuAcceleratedMatrix@UDiagMatr2@@@@YA_NUDiagMatr2@@@Z
	??$util_isGpuAcceleratedMatrix@UDiagMatr@@@@YA_NUDiagMatr@@@Z
	??$util_isGpuAcceleratedMatrix@UFullStateDiagMatr@@@@YA_NUFullStateDiagMatr@@@Z
	??$validateAndApplyAnyCtrlAnyTargUnitaryMatrix@UCompMatr1@@@@YAXUQureg@@PEAH1H1HUCompMatr1@@PEBD@Z
	??$validateAndApplyAnyCtrlAnyTargUnitaryMatrix@UCompMatr2@@@@YAXUQureg@@PEAH1H1HUCompMatr2@@PEBD@Z
	??$validateAndApplyAnyCtrlAnyTargUnitaryMatrix@UCompMatr@@@@YAXUQureg@@PEAH1H1HUCompMatr@@PEBD@Z
	??$validateAndApplyAnyCtrlAnyTargUnitaryMatrix@UDiagMatr1@@@@YAXUQureg@@PEAH1H1HUDiagMatr1@@PEBD@Z
	??$validateAndApplyAnyCtrlAnyTargUnitaryMatrix@UDiagMatr2@@@@YAXUQureg@@PEAH1H1HUDiagMatr2@@PEBD@Z
	??$validateAndApplyAnyCtrlAnyTargUnitaryMatrix@UDiagMatr@@@@YAXUQureg@@PEAH1H1HUDiagMatr@@PEBD@Z
	??$validateAndDestroyMatrix@UCompMatr@@@@YAXUCompMatr@@PEBD@Z
	??$validateAndDestroyMatrix@UDiagMatr@@@@YAXUDiagMatr@@PEBD@Z
	??$validateAndDestroyMatrix@UFullStateDiagMatr@@@@YAXUFullStateDiagMatr@@PEBD@Z
	??$validateAndPrintMatrix@UCompMatr1@@@@YAXUCompMatr1@@PEBD@Z
	??$validateAndPrintMatrix@UCompMatr2@@@@YAXUCompMatr2@@PEBD@Z
	??$validateAndPrintMatrix@UCompMatr@@@@YAXUCompMatr@@PEBD@Z
	??$validateAndPrintMatrix@UDiagMatr1@@@@YAXUDiagMatr1@@PEBD@Z
	??$validateAndPrintMatrix@UDiagMatr2@@@@YAXUDiagMatr2@@PEBD@Z
	??$validateAndPrintMatrix@UDiagMatr@@@@YAXUDiagMatr@@PEBD@Z
	??$validateAndPrintMatrix@UFullStateDiagMatr@@@@YAXUFullStateDiagMatr@@PEBD@Z
	??$validateAndSyncMatrix@UCompMatr@@@@YAXUCompMatr@@PEBD@Z
	??$validateAndSyncMatrix@UDiagMatr@@@@YAXUDiagMatr@@PEBD@Z
	??$validateAndSyncMatrix@UFullStateDiagMatr@@@@YAXUFullStateDiagMatr@@PEBD@Z
	??$validateMatrixAllocs@UCompMatr@@@@YAXUCompMatr@@PEBD@Z
	??$validateMatrixAllocs@UDiagMatr@@@@YAXUDiagMatr@@PEBD@Z
	??$validateMatrixAllocs@UFullStateDiagMatr@@@@YAXUFullStateDiagMatr@@PEBD@Z
	??0?$_Builder@PEBDDV?$regex_traits@D@std@@@std@@QEAA@AEBV?$regex_traits@D@1@W4syntax_option_type@regex_constants@1@@Z
	??0?$_Matcher@V?$_String_const_iterator@V?$_String_val@U?$_Simple_types@D@std@@@std@@@std@@DV?$regex_traits@D@2@V12@@std@@QEAA@V?$_String_const_iterator@V?$_String_val@U?$_Simple_types@D@std@@@std@@@1@0AEBV?$regex_traits@D@1@PEAV_Root_node@1@IW4syntax_option_type@regex_constants@1@W4match_flag_type@61@@Z
	??0?$_Parser@PEBDDV?$regex_traits@D@std@@@std@@QEAA@AEBV?$regex_traits@D@1@PEBD1W4syntax_option_type@regex_constants@1@@Z
	??0?$_Tgt_state_t@PEBD@std@@QEAA@AEBV01@@Z
	??0?$_Tgt_state_t@V?$_String_const_iterator@V?$_String_val@U?$_Simple_types@D@std@@@std@@@std@@@std@@QEAA@AEBV01@@Z
	??0?$basic_ifstream@DU?$char_traits@D@std@@@std@@QEAA@PEBDHH@Z
	??0?$basic_string@DU?$char_traits@D@std@@V?$allocator@D@2@@std@@QEAA@AEBV01@@Z
	??0?$basic_string@DU?$char_traits@D@std@@V?$allocator@D@2@@std@@QEAA@QEBD@Z
	??0?$basic_string@DU?$char_traits@D@std@@V?$allocator@D@2@@std@@QEAA@U_String_constructor_concat_tag@1@AEAV01@1@Z
	??0?$basic_string@DU?$char_traits@D@std@@V?$allocator@D@2@@std@@QEAA@U_String_constructor_concat_tag@1@AEBV01@QEBD_K23@Z
	??0?$basic_string@DU?$char_traits@D@std@@V?$allocator@D@2@@std@@QEAA@_KD@Z
	??0?$basic_string@_WU?$char_traits@_W@std@@V?$allocator@_W@2@@std@@QEAA@AEBV01@@Z
	??0?$basic_stringstream@DU?$char_traits@D@std@@V?$allocator@D@2@@std@@QEAA@AEBV?$basic_string@DU?$char_traits@D@std@@V?$allocator@D@2@@1@H@Z
	??0?$map@V?$basic_string@DU?$char_traits@D@std@@V?$allocator@D@2@@std@@_JU?$less@V?$basic_string@DU?$char_traits@D@std@@V?$allocator@D@2@@std@@@2@V?$allocator@U?$pair@$$CBV?$basic_string@DU?$char_traits@D@std@@V?$allocator@D@2@@std@@_J@std@@@2@@std@@QEAA@AEBV01@@Z
	??0?$map@V?$basic_string@DU?$char_traits@D@std@@V?$allocator@D@2@@std@@_JU?$less@V?$basic_string@DU?$char_traits@D@std@@V?$allocator@D@2@@std@@@2@V?$allocator@U?$pair@$$CBV?$basic_string@DU?$char_traits@D@std@@V?$allocator@D@2@@std@@_J@std@@@2@@std@@QEAA@V?$initializer_list@U?$pair@$$CBV?$basic_string@DU?$char_traits@D@std@@V?$allocator@D@2@@std@@_J@std@@@1@@Z
	??0?$vector@HV?$allocator@H@std@@@std@@QEAA@AEBV01@@Z
	??0?$vector@HV?$allocator@H@std@@@std@@QEAA@V?$initializer_list@H@1@AEBV?$allocator@H@1@@Z
	??0?$vector@IV?$allocator@I@std@@@std@@QEAA@AEBV01@@Z
	??0?$vector@P6AXUQureg@@V?$vector@HV?$allocator@H@std@@@std@@11UCompMatr@@@ZV?$allocator@P6AXUQureg@@V?$vector@HV?$allocator@H@std@@@std@@11UCompMatr@@@Z@3@@std@@QEAA@V?$initializer_list@P6AXUQureg@@V?$vector@HV?$allocator@H@std@@@std@@11UCompMatr@@@Z@1@AEBV?$allocator@P6AXUQureg@@V?$vector@HV?$allocator@H@std@@@std@@11UCompMatr@@@Z@1@@Z
	??0?$vector@P6AXUQureg@@V?$vector@HV?$allocator@H@std@@@std@@11UDiagMatr@@V?$complex@N@3@@ZV?$allocator@P6AXUQureg@@V?$vector@HV?$allocator@H@std@@@std@@11UDiagMatr@@V?$complex@N@3@@Z@3@@std@@QEAA@V?$initializer_list@P6AXUQureg@@V?$vector@HV?$allocator@H@std@@@std@@11UDiagMatr@@V?$complex@N@3@@Z@1@AEBV?$allocator@P6AXUQureg@@V?$vector@HV?$allocator@H@std@@@std@@11UDiagMatr@@V?$complex@N@3@@Z@1@@Z
	??0?$vector@U?$pair@HH@std@@V?$allocator@U?$pair@HH@std@@@2@@std@@QEAA@AEBV01@@Z
	??0?$vector@V?$basic_string@DU?$char_traits@D@std@@V?$allocator@D@2@@std@@V?$allocator@V?$basic_string@DU?$char_traits@D@std@@V?$allocator@D@2@@std@@@2@@std@@QEAA@AEBV01@@Z
	??0?$vector@V?$basic_string@DU?$char_traits@D@std@@V?$allocator@D@2@@std@@V?$allocator@V?$basic_string@DU?$char_traits@D@std@@V?$allocator@D@2@@std@@@2@@std@@QEAA@V?$initializer_list@V?$basic_string@DU?$char_traits@D@std@@V?$allocator@D@2@@std@@@1@AEBV?$allocator@V?$basic_string@DU?$char_traits@D@std@@V?$allocator@D@2@@std@@@1@@Z
	??0?$vector@V?$complex@N@std@@V?$allocator@V?$complex@N@std@@@2@@std@@QEAA@AEBV01@@Z
	??0?$vector@V?$tuple@V?$basic_string@DU?$char_traits@D@std@@V?$allocator@D@2@@std@@V12@@std@@V?$allocator@V?$tuple@V?$basic_string@DU?$char_traits@D@std@@V?$allocator@D@2@@std@@V12@@std@@@2@@std@@QEAA@V?$initializer_list@V?$tuple@V?$basic_string@DU?$char_traits@D@std@@V?$allocator@D@2@@std@@V12@@std@@@1@AEBV?$allocator@V?$tuple@V?$basic_string@DU?$char_traits@D@std@@V?$allocator@D@2@@std@@V12@@std@@@1@@Z
	??0?$vector@V?$tuple@V?$basic_string@DU?$char_traits@D@std@@V?$allocator@D@2@@std@@_J@std@@V?$allocator@V?$tuple@V?$basic_string@DU?$char_traits@D@std@@V?$allocator@D@2@@std@@_J@std@@@2@@std@@QEAA@V?$initializer_list@V?$tuple@V?$basic_string@DU?$char_traits@D@std@@V?$allocator@D@2@@std@@_J@std@@@1@AEBV?$allocator@V?$tuple@V?$basic_string@DU?$char_traits@D@std@@V?$allocator@D@2@@std@@_J@std@@@1@@Z
	??0?$vector@V?$vector@P6AXUQureg@@V?$vector@HV?$allocator@H@std@@@std@@1111V?$complex@N@3@2@ZV?$allocator@P6AXUQureg@@V?$vector@HV?$allocator@H@std@@@std@@1111V?$complex@N@3@2@Z@3@@std@@V?$allocator@V?$vector@P6AXUQureg@@V?$vector@HV?$allocator@H@std@@@std@@1111V?$complex@N@3@2@ZV?$allocator@P6AXUQureg@@V?$vector@HV?$allocator@H@std@@@std@@1111V?$complex@N@3@2@Z@3@@std@@@2@@std@@QEAA@V?$initializer_list@V?$vector@P6AXUQureg@@V?$vector@HV?$allocator@H@std@@@std@@1111V?$complex@N@3@2@ZV?$allocator@P6AXUQureg@@V?$vector@HV?$allocator@H@std@@@std@@1111V?$complex@N@3@2@Z@3@@std@@@1@AEBV?$allocator@V?$vector@P6AXUQureg@@V?$vector@HV?$allocator@H@std@@@std@@1111V?$complex@N@3@2@ZV?$allocator@P6AXUQureg@@V?$vector@HV?$allocator@H@std@@@std@@1111V?$complex@N@3@2@Z@3@@std@@@1@@Z
	??0?$vector@V?$vector@P6AXUQureg@@V?$vector@HV?$allocator@H@std@@@std@@11UCompMatr@@@ZV?$allocator@P6AXUQureg@@V?$vector@HV?$allocator@H@std@@@std@@11UCompMatr@@@Z@3@@std@@V?$allocator@V?$vector@P6AXUQureg@@V?$vector@HV?$allocator@H@std@@@std@@11UCompMatr@@@ZV?$allocator@P6AXUQureg@@V?$vector@HV?$allocator@H@std@@@std@@11UCompMatr@@@Z@3@@std@@@2@@std@@QEAA@V?$initializer_list@V?$vector@P6AXUQureg@@V?$vector@HV?$allocator@H@std@@@std@@11UCompMatr@@@ZV?$allocator@P6AXUQureg@@V?$vector@HV?$allocator@H@std@@@std@@11UCompMatr@@@Z@3@@std@@@1@AEBV?$allocator@V?$vector@P6AXUQureg@@V?$vector@HV?$allocator@H@std@@@std@@11UCompMatr@@@ZV?$allocator@P6AXUQureg@@V?$vector@HV?$allocator@H@std@@@std@@11UCompMatr@@@Z@3@@std@@@1@@Z
	??0?$vector@V?$vector@P6AXUQureg@@V?$vector@HV?$allocator@H@std@@@std@@11UDiagMatr@@V?$complex@N@3@@ZV?$allocator@P6AXUQureg@@V?$vector@HV?$allocator@H@std@@@std@@11UDiagMatr@@V?$complex@N@3@@Z@3@@std@@V?$allocator@V?$vector@P6AXUQureg@@V?$vector@HV?$allocator@H@std@@@std@@11UDiagMatr@@V?$complex@N@3@@ZV?$allocator@P6AXUQureg@@V?$vector@HV?$allocator@H@std@@@std@@11UDiagMatr@@V?$complex@N@3@@Z@3@@std@@@2@@std@@QEAA@V?$initializer_list@V?$vector@P6AXUQureg@@V?$vector@HV?$allocator@H@std@@@std@@11UDiagMatr@@V?$complex@N@3@@ZV?$allocator@P6AXUQureg@@V?$vector@HV?$allocator@H@std@@@std@@11UDiagMatr@@V?$complex@N@3@@Z@3@@std@@@1@AEBV?$allocator@V?$vector@P6AXUQureg@@V?$vector@HV?$allocator@H@std@@@std@@11UDiagMatr@@V?$complex@N@3@@ZV?$allocator@P6AXUQureg@@V?$vector@HV?$allocator@H@std@@@std@@11UDiagMatr@@V?$complex@N@3@@Z@3@@std@@@1@@Z
	??0?$vector@V?$vector@V?$basic_string@DU?$char_traits@D@std@@V?$allocator@D@2@@std@@V?$allocator@V?$basic_string@DU?$char_traits@D@std@@V?$allocator@D@2@@std@@@2@@std@@V?$allocator@V?$vector@V?$basic_string@DU?$char_traits@D@std@@V?$allocator@D@2@@std@@V?$allocator@V?$basic_string@DU?$char_traits@D@std@@V?$allocator@D@2@@std@@@2@@std@@@2@@std@@QEAA@AEBV01@@Z
	??0?$vector@V?$vector@V?$complex@N@std@@V?$allocator@V?$complex@N@std@@@2@@std@@V?$allocator@V?$vector@V?$complex@N@std@@V?$allocator@V?$complex@N@std@@@2@@std@@@2@@std@@QEAA@AEBV01@@Z
	??0?$vector@V?$vector@V?$complex@N@std@@V?$allocator@V?$complex@N@std@@@2@@std@@V?$allocator@V?$vector@V?$complex@N@std@@V?$allocator@V?$complex@N@std@@@2@@std@@@2@@std@@QEAA@V?$initializer_list@V?$vector@V?$complex@N@std@@V?$allocator@V?$complex@N@std@@@2@@std@@@1@AEBV?$allocator@V?$vector@V?$complex@N@std@@V?$allocator@V?$complex@N@std@@@2@@std@@@1@@Z
	??0?$vector@V?$vector@V?$vector@V?$complex@N@std@@V?$allocator@V?$complex@N@std@@@2@@std@@V?$allocator@V?$vector@V?$complex@N@std@@V?$allocator@V?$complex@N@std@@@2@@std@@@2@@std@@V?$allocator@V?$vector@V?$vector@V?$complex@N@std@@V?$allocator@V?$complex@N@std@@@2@@std@@V?$allocator@V?$vector@V?$complex@N@std@@V?$allocator@V?$complex@N@std@@@2@@std@@@2@@std@@@2@@std@@QEAA@AEBV01@@Z
	??0?$vector@_JV?$allocator@_J@std@@@std@@QEAA@AEBV01@@Z
	??0?$vector@_KV?$allocator@_K@std@@@std@@QEAA@AEBV01@@Z
	??0?$vector@_NV?$allocator@_N@std@@@std@@QEAA@AEBV01@@Z
	??0?$vector@_NV?$allocator@_N@std@@@std@@QEAA@_KAEB_NAEBV?$allocator@_N@1@@Z
	??0DiskBackedState@@QEAA@HHHAEBV?$vector@V?$basic_string@DU?$char_traits@D@std@@V?$allocator@D@2@@std@@V?$allocator@V?$basic_string@DU?$char_traits@D@std@@V?$allocator@D@2@@std@@@2@@std@@@Z
	??0PermutationTracker@@QEAA@HHH@Z
	??0SubCircuit@@QEAA@AEBU0@@Z
	??0_System_error@std@@IEAA@Verror_code@1@AEBV?$basic_string@DU?$char_traits@D@std@@V?$allocator@D@2@@1@@Z
	??0_System_error@std@@QEAA@AEBV01@@Z
	??0bad_alloc@std@@QEAA@AEBV01@@Z
	??0bad_array_new_length@std@@QEAA@AEBV01@@Z
	??0bad_array_new_length@std@@QEAA@XZ
	??0bad_cast@std@@QEAA@AEBV01@@Z
	??0bad_cast@std@@QEAA@XZ
	??0exception@std@@QEAA@AEBV01@@Z
	??0filesystem_error@filesystem@std@@QEAA@AEBV012@@Z
	??0filesystem_error@filesystem@std@@QEAA@AEBV?$basic_string@DU?$char_traits@D@std@@V?$allocator@D@2@@2@AEBVpath@12@Verror_code@2@@Z
	??0invalid_argument@std@@QEAA@AEBV01@@Z
	??0invalid_argument@std@@QEAA@PEBD@Z
	??0logic_error@std@@QEAA@AEBV01@@Z
	??0runtime_error@std@@QEAA@AEBV01@@Z
	??0runtime_error@std@@QEAA@AEBV?$basic_string@DU?$char_traits@D@std@@V?$allocator@D@2@@1@@Z
	??0runtime_error@std@@QEAA@PEBD@Z
	??0system_error@std@@QEAA@AEBV01@@Z
	??0system_error@std@@QEAA@Verror_code@1@@Z
	??1?$ThreadSafeQueue@UBlockData@@@@QEAA@XZ
	??1?$_Alloc_construct_ptr@V?$allocator@U?$_List_node@PEAHPEAX@std@@@std@@@std@@QEAA@XZ
	??1?$_Alloc_construct_ptr@V?$allocator@U?$_List_node@U?$pair@$$CBHH@std@@PEAX@std@@@std@@@std@@QEAA@XZ
	??1?$_Alloc_construct_ptr@V?$allocator@U?$_List_node@U?$pair@$$CB_KV?$vector@V?$tuple@UPauliStr@@V?$complex@N@std@@@std@@V?$allocator@V?$tuple@UPauliStr@@V?$complex@N@std@@@std@@@2@@std@@@std@@PEAX@std@@@std@@@std@@QEAA@XZ
	??1?$_Alloc_construct_ptr@V?$allocator@U?$_Tree_node@HPEAX@std@@@std@@@std@@QEAA@XZ
	??1?$_Alloc_construct_ptr@V?$allocator@U?$_Tree_node@U?$pair@$$CBV?$basic_string@DU?$char_traits@D@std@@V?$allocator@D@2@@std@@_J@std@@PEAX@std@@@std@@@std@@QEAA@XZ
	??1?$_Bt_state_t@PEBD@std@@QEAA@XZ
	??1?$_Bt_state_t@V?$_String_const_iterator@V?$_String_val@U?$_Simple_types@D@std@@@std@@@std@@@std@@QEAA@XZ
	??1?$_Container_proxy_ptr12@V?$allocator@U_Container_proxy@std@@@std@@@std@@QEAA@XZ
	??1?$_Erase_tree_and_orphan_guard@V?$allocator@U?$_Tree_node@U?$pair@$$CBV?$basic_string@DU?$char_traits@D@std@@V?$allocator@D@2@@std@@_J@std@@PEAX@std@@@std@@@?$_Tree_val@U?$_Tree_simple_types@U?$pair@$$CBV?$basic_string@DU?$char_traits@D@std@@V?$allocator@D@2@@std@@_J@std@@@std@@@std@@QEAA@XZ
	??1?$_Func_class@X$$V@std@@QEAA@XZ
	??1?$_Hash_vec@V?$allocator@V?$_List_unchecked_iterator@V?$_List_val@U?$_List_simple_types@U?$pair@$$CBHH@std@@@std@@@std@@@std@@@std@@@std@@QEAA@XZ
	??1?$_Hash_vec@V?$allocator@V?$_List_unchecked_iterator@V?$_List_val@U?$_List_simple_types@U?$pair@$$CB_KV?$vector@V?$tuple@UPauliStr@@V?$complex@N@std@@@std@@V?$allocator@V?$tuple@UPauliStr@@V?$complex@N@std@@@std@@@2@@std@@@std@@@std@@@std@@@std@@@std@@@std@@QEAA@XZ
	??1?$_List_node_emplace_op2@V?$allocator@U?$_List_node@U?$pair@$$CBHH@std@@PEAX@std@@@std@@@std@@QEAA@XZ
	??1?$_List_node_emplace_op2@V?$allocator@U?$_List_node@U?$pair@$$CB_KV?$vector@V?$tuple@UPauliStr@@V?$complex@N@std@@@std@@V?$allocator@V?$tuple@UPauliStr@@V?$complex@N@std@@@std@@@2@@std@@@std@@PEAX@std@@@std@@@std@@QEAA@XZ
	??1?$_List_node_insert_op2@V?$allocator@U?$_List_node@PEAHPEAX@std@@@std@@@std@@QEAA@XZ
	??1?$_Matcher@PEBDDV?$regex_traits@D@std@@PEBD@std@@QEAA@XZ
	??1?$_Matcher@V?$_String_const_iterator@V?$_String_val@U?$_Simple_types@D@std@@@std@@@std@@DV?$regex_traits@D@2@V12@@std@@QEAA@XZ
	??1?$_Parser@PEBDDV?$regex_traits@D@std@@@std@@QEAA@XZ
	??1?$_Tgt_state_t@PEBD@std@@QEAA@XZ
	??1?$_Tgt_state_t@V?$_String_const_iterator@V?$_String_val@U?$_Simple_types@D@std@@@std@@@std@@@std@@QEAA@XZ
	??1?$_Tidy_guard@V?$_Builder@PEBDDV?$regex_traits@D@std@@@std@@@std@@QEAA@XZ
	??1?$_Tidy_guard@V?$deque@UGateOp@@V?$allocator@UGateOp@@@std@@@std@@@std@@QEAA@XZ
	??1?$_Tidy_guard@V?$vector@V?$basic_string@DU?$char_traits@D@std@@V?$allocator@D@2@@std@@V?$allocator@V?$basic_string@DU?$char_traits@D@std@@V?$allocator@D@2@@std@@@2@@std@@@std@@QEAA@XZ
	??1?$_Tidy_guard@V?$vector@V?$tuple@V?$basic_string@DU?$char_traits@D@std@@V?$allocator@D@2@@std@@V12@@std@@V?$allocator@V?$tuple@V?$basic_string@DU?$char_traits@D@std@@V?$allocator@D@2@@std@@V12@@std@@@2@@std@@@std@@QEAA@XZ
	??1?$_Tidy_guard@V?$vector@V?$tuple@V?$basic_string@DU?$char_traits@D@std@@V?$allocator@D@2@@std@@_J@std@@V?$allocator@V?$tuple@V?$basic_string@DU?$char_traits@D@std@@V?$allocator@D@2@@std@@_J@std@@@2@@std@@@std@@QEAA@XZ
	??1?$_Tidy_guard@V?$vector@V?$vector@HV?$allocator@H@std@@@std@@V?$allocator@V?$vector@HV?$allocator@H@std@@@std@@@2@@std@@@std@@QEAA@XZ
	??1?$_Tidy_guard@V?$vector@V?$vector@P6AXUQureg@@V?$vector@HV?$allocator@H@std@@@std@@1111V?$complex@N@3@2@ZV?$allocator@P6AXUQureg@@V?$vector@HV?$allocator@H@std@@@std@@1111V?$complex@N@3@2@Z@3@@std@@V?$allocator@V?$vector@P6AXUQureg@@V?$vector@HV?$allocator@H@std@@@std@@1111V?$complex@N@3@2@ZV?$allocator@P6AXUQureg@@V?$vector@HV?$allocator@H@std@@@std@@1111V?$complex@N@3@2@Z@3@@std@@@2@@std@@@std@@QEAA@XZ
	??1?$_Tidy_guard@V?$vector@V?$vector@P6AXUQureg@@V?$vector@HV?$allocator@H@std@@@std@@11UCompMatr@@@ZV?$allocator@P6AXUQureg@@V?$vector@HV?$allocator@H@std@@@std@@11UCompMatr@@@Z@3@@std@@V?$allocator@V?$vector@P6AXUQureg@@V?$vector@HV?$allocator@H@std@@@std@@11UCompMatr@@@ZV?$allocator@P6AXUQureg@@V?$vector@HV?$allocator@H@std@@@std@@11UCompMatr@@@Z@3@@std@@@2@@std@@@std@@QEAA@XZ
	??1?$_Tidy_guard@V?$vector@V?$vector@P6AXUQureg@@V?$vector@HV?$allocator@H@std@@@std@@11UDiagMatr@@V?$complex@N@3@@ZV?$allocator@P6AXUQureg@@V?$vector@HV?$allocator@H@std@@@std@@11UDiagMatr@@V?$complex@N@3@@Z@3@@std@@V?$allocator@V?$vector@P6AXUQureg@@V?$vector@HV?$allocator@H@std@@@std@@11UDiagMatr@@V?$complex@N@3@@ZV?$allocator@P6AXUQureg@@V?$vector@HV?$allocator@H@std@@@std@@11UDiagMatr@@V?$complex@N@3@@Z@3@@std@@@2@@std@@@std@@QEAA@XZ
	??1?$_Tidy_guard@V?$vector@V?$vector@V?$basic_string@DU?$char_traits@D@std@@V?$allocator@D@2@@std@@V?$allocator@V?$basic_string@DU?$char_traits@D@std@@V?$allocator@D@2@@std@@@2@@std@@V?$allocator@V?$vector@V?$basic_string@DU?$char_traits@D@std@@V?$allocator@D@2@@std@@V?$allocator@V?$basic_string@DU?$char_traits@D@std@@V?$allocator@D@2@@std@@@2@@std@@@2@@std@@@std@@QEAA@XZ
	??1?$_Tidy_guard@V?$vector@V?$vector@V?$complex@N@std@@V?$allocator@V?$complex@N@std@@@2@@std@@V?$allocator@V?$vector@V?$complex@N@std@@V?$allocator@V?$complex@N@std@@@2@@std@@@2@@std@@@std@@QEAA@XZ
	??1?$_Tidy_guard@V?$vector@V?$vector@V?$vector@V?$complex@N@std@@V?$allocator@V?$complex@N@std@@@2@@std@@V?$allocator@V?$vector@V?$complex@N@std@@V?$allocator@V?$complex@N@std@@@2@@std@@@2@@std@@V?$allocator@V?$vector@V?$vector@V?$complex@N@std@@V?$allocator@V?$complex@N@std@@@2@@std@@V?$allocator@V?$vector@V?$complex@N@std@@V?$allocator@V?$complex@N@std@@@2@@std@@@2@@std@@@2@@std@@@std@@QEAA@XZ
	??1?$_Tree@V?$_Tmap_traits@V?$basic_string@DU?$char_traits@D@std@@V?$allocator@D@2@@std@@_JU?$less@V?$basic_string@DU?$char_traits@D@std@@V?$allocator@D@2@@std@@@2@V?$allocator@U?$pair@$$CBV?$basic_string@DU?$char_traits@D@std@@V?$allocator@D@2@@std@@_J@std@@@2@$0A@@std@@@std@@QEAA@XZ
	??1?$_Tree@V?$_Tset_traits@HU?$less@H@std@@V?$allocator@H@2@$0A@@std@@@std@@QEAA@XZ
	??1?$_Tree_head_scoped_ptr@V?$allocator@U?$_Tree_node@U?$pair@$$CBV?$basic_string@DU?$char_traits@D@std@@V?$allocator@D@2@@std@@_J@std@@PEAX@std@@@std@@V?$_Tree_val@U?$_Tree_simple_types@U?$pair@$$CBV?$basic_string@DU?$char_traits@D@std@@V?$allocator@D@2@@std@@_J@std@@@std@@@2@@std@@QEAA@XZ
	??1?$_Tree_temp_node_alloc@V?$allocator@U?$_Tree_node@U?$pair@$$CBV?$basic_string@DU?$char_traits@D@std@@V?$allocator@D@2@@std@@_J@std@@PEAX@std@@@std@@@std@@QEAA@XZ
	??1?$_Uninitialized_backout_al@V?$allocator@V?$basic_string@DU?$char_traits@D@std@@V?$allocator@D@2@@std@@@std@@@std@@QEAA@XZ
	??1?$_Uninitialized_backout_al@V?$allocator@V?$tuple@V?$basic_string@DU?$char_traits@D@std@@V?$allocator@D@2@@std@@V12@@std@@@std@@@std@@QEAA@XZ
	??1?$_Uninitialized_backout_al@V?$allocator@V?$tuple@V?$basic_string@DU?$char_traits@D@std@@V?$allocator@D@2@@std@@_J@std@@@std@@@std@@QEAA@XZ
	??1?$_Uninitialized_backout_al@V?$allocator@V?$vector@HV?$allocator@H@std@@@std@@@std@@@std@@QEAA@XZ
	??1?$_Uninitialized_backout_al@V?$allocator@V?$vector@P6AXUQureg@@V?$vector@HV?$allocator@H@std@@@std@@1111V?$complex@N@3@2@ZV?$allocator@P6AXUQureg@@V?$vector@HV?$allocator@H@std@@@std@@1111V?$complex@N@3@2@Z@3@@std@@@std@@@std@@QEAA@XZ
	??1?$_Uninitialized_backout_al@V?$allocator@V?$vector@P6AXUQureg@@V?$vector@HV?$allocator@H@std@@@std@@11UCompMatr@@@ZV?$allocator@P6AXUQureg@@V?$vector@HV?$allocator@H@std@@@std@@11UCompMatr@@@Z@3@@std@@@std@@@std@@QEAA@XZ
	??1?$_Uninitialized_backout_al@V?$allocator@V?$vector@P6AXUQureg@@V?$vector@HV?$allocator@H@std@@@std@@11UDiagMatr@@V?$complex@N@3@@ZV?$allocator@P6AXUQureg@@V?$vector@HV?$allocator@H@std@@@std@@11UDiagMatr@@V?$complex@N@3@@Z@3@@std@@@std@@@std@@QEAA@XZ
	??1?$_Uninitialized_backout_al@V?$allocator@V?$vector@V?$basic_string@DU?$char_traits@D@std@@V?$allocator@D@2@@std@@V?$allocator@V?$basic_string@DU?$char_traits@D@std@@V?$allocator@D@2@@std@@@2@@std@@@std@@@std@@QEAA@XZ
	??1?$_Uninitialized_backout_al@V?$allocator@V?$vector@V?$complex@N@std@@V?$allocator@V?$complex@N@std@@@2@@std@@@std@@@std@@QEAA@XZ
	??1?$_Uninitialized_backout_al@V?$allocator@V?$vector@V?$vector@V?$complex@N@std@@V?$allocator@V?$complex@N@std@@@2@@std@@V?$allocator@V?$vector@V?$complex@N@std@@V?$allocator@V?$complex@N@std@@@2@@std@@@2@@std@@@std@@@std@@QEAA@XZ
	??1?$_Vb_val@V?$allocator@_N@std@@@std@@QEAA@XZ
	??1?$array@V?$vector@HV?$allocator@H@std@@@std@@$01@std@@QEAA@XZ
	??1?$array@V?$vector@HV?$allocator@H@std@@@std@@$02@std@@QEAA@XZ
	??1?$basic_filebuf@DU?$char_traits@D@std@@@std@@UEAA@XZ
	??1?$basic_ifstream@DU?$char_traits@D@std@@@std@@UEAA@XZ
	??1?$basic_ostringstream@DU?$char_traits@D@std@@V?$allocator@D@2@@std@@UEAA@XZ
	??1?$basic_string@DU?$char_traits@D@std@@V?$allocator@D@2@@std@@QEAA@XZ
	??1?$basic_string@_WU?$char_traits@_W@std@@V?$allocator@_W@2@@std@@QEAA@XZ
	??1?$basic_stringbuf@DU?$char_traits@D@std@@V?$allocator@D@2@@std@@UEAA@XZ
	??1?$basic_stringstream@DU?$char_traits@D@std@@V?$allocator@D@2@@std@@UEAA@XZ
	??1?$collate@D@std@@MEAA@XZ
	??1?$deque@UBlockData@@V?$allocator@UBlockData@@@std@@@std@@QEAA@XZ
	??1?$deque@UGateOp@@V?$allocator@UGateOp@@@std@@@std@@QEAA@XZ
	??1?$function@$$A6AXXZ@std@@QEAA@XZ
	??1?$list@U?$pair@$$CBHH@std@@V?$allocator@U?$pair@$$CBHH@std@@@2@@std@@QEAA@XZ
	??1?$list@U?$pair@$$CB_KV?$vector@V?$tuple@UPauliStr@@V?$complex@N@std@@@std@@V?$allocator@V?$tuple@UPauliStr@@V?$complex@N@std@@@std@@@2@@std@@@std@@V?$allocator@U?$pair@$$CB_KV?$vector@V?$tuple@UPauliStr@@V?$complex@N@std@@@std@@V?$allocator@V?$tuple@UPauliStr@@V?$complex@N@std@@@std@@@2@@std@@@std@@@2@@std@@QEAA@XZ
	??1?$map@V?$basic_string@DU?$char_traits@D@std@@V?$allocator@D@2@@std@@_JU?$less@V?$basic_string@DU?$char_traits@D@std@@V?$allocator@D@2@@std@@@2@V?$allocator@U?$pair@$$CBV?$basic_string@DU?$char_traits@D@std@@V?$allocator@D@2@@std@@_J@std@@@2@@std@@QEAA@XZ
	??1?$match_results@V?$_String_const_iterator@V?$_String_val@U?$_Simple_types@D@std@@@std@@@std@@V?$allocator@V?$sub_match@V?$_String_const_iterator@V?$_String_val@U?$_Simple_types@D@std@@@std@@@std@@@std@@@2@@std@@QEAA@XZ
	??1?$pair@$$CBV?$basic_string@DU?$char_traits@D@std@@V?$allocator@D@2@@std@@_J@std@@QEAA@XZ
	??1?$regex_iterator@V?$_String_const_iterator@V?$_String_val@U?$_Simple_types@D@std@@@std@@@std@@DV?$regex_traits@D@2@@std@@QEAA@XZ
	??1?$regex_traits@D@std@@QEAA@XZ
	??1?$set@HU?$less@H@std@@V?$allocator@H@2@@std@@QEAA@XZ
	??1?$tuple@V?$basic_string@DU?$char_traits@D@std@@V?$allocator@D@2@@std@@@std@@QEAA@XZ
	??1?$tuple@V?$basic_string@DU?$char_traits@D@std@@V?$allocator@D@2@@std@@V12@@std@@QEAA@XZ
	??1?$tuple@V?$basic_string@DU?$char_traits@D@std@@V?$allocator@D@2@@std@@_J@std@@QEAA@XZ
	??1?$tuple@V?$vector@HV?$allocator@H@std@@@std@@@std@@QEAA@XZ
	??1?$tuple@V?$vector@HV?$allocator@H@std@@@std@@V12@@std@@QEAA@XZ
	??1?$tuple@V?$vector@U?$pair@HH@std@@V?$allocator@U?$pair@HH@std@@@2@@std@@V12@V?$vector@HV?$allocator@H@std@@@2@@std@@QEAA@XZ
	??1?$tuple@V?$vector@U?$pair@HH@std@@V?$allocator@U?$pair@HH@std@@@2@@std@@V?$vector@HV?$allocator@H@std@@@2@@std@@QEAA@XZ
	??1?$unique_lock@Vmutex@std@@@std@@QEAA@XZ
	??1?$unique_ptr@V_Facet_base@std@@U?$default_delete@V_Facet_base@std@@@2@@std@@QEAA@XZ
	??1?$unique_ptr@V_Node_assert@std@@U?$default_delete@V_Node_assert@std@@@2@@std@@QEAA@XZ
	??1?$unordered_map@HHU?$hash@H@std@@U?$equal_to@H@2@V?$allocator@U?$pair@$$CBHH@std@@@2@@std@@QEAA@XZ
	??1?$unordered_map@_KV?$vector@V?$tuple@UPauliStr@@V?$complex@N@std@@@std@@V?$allocator@V?$tuple@UPauliStr@@V?$complex@N@std@@@std@@@2@@std@@U?$hash@_K@2@U?$equal_to@_K@2@V?$allocator@U?$pair@$$CB_KV?$vector@V?$tuple@UPauliStr@@V?$complex@N@std@@@std@@V?$allocator@V?$tuple@UPauliStr@@V?$complex@N@std@@@std@@@2@@std@@@std@@@2@@std@@QEAA@XZ
	??1?$vector@DV?$allocator@D@std@@@std@@QEAA@XZ
	??1?$vector@HV?$allocator@H@std@@@std@@QEAA@XZ
	??1?$vector@IV?$allocator@I@std@@@std@@QEAA@XZ
	??1?$vector@NV?$allocator@N@std@@@std@@QEAA@XZ
	??1?$vector@P6ANUQureg@@V?$vector@HV?$allocator@H@std@@@std@@1@ZV?$allocator@P6ANUQureg@@V?$vector@HV?$allocator@H@std@@@std@@1@Z@3@@std@@QEAA@XZ
	??1?$vector@P6AXPEANUQureg@@V?$vector@HV?$allocator@H@std@@@std@@@ZV?$allocator@P6AXPEANUQureg@@V?$vector@HV?$allocator@H@std@@@std@@@Z@3@@std@@QEAA@XZ
	??1?$vector@P6AXUQureg@@V?$vector@HV?$allocator@H@std@@@std@@1111V?$complex@N@3@2@ZV?$allocator@P6AXUQureg@@V?$vector@HV?$allocator@H@std@@@std@@1111V?$complex@N@3@2@Z@3@@std@@QEAA@XZ
	??1?$vector@P6AXUQureg@@V?$vector@HV?$allocator@H@std@@@std@@1111V?$complex@N@3@2_J@ZV?$allocator@P6AXUQureg@@V?$vector@HV?$allocator@H@std@@@std@@1111V?$complex@N@3@2_J@Z@3@@std@@QEAA@XZ
	??1?$vector@P6AXUQureg@@V?$vector@HV?$allocator@H@std@@@std@@11UCompMatr@@@ZV?$allocator@P6AXUQureg@@V?$vector@HV?$allocator@H@std@@@std@@11UCompMatr@@@Z@3@@std@@QEAA@XZ
	??1?$vector@P6AXUQureg@@V?$vector@HV?$allocator@H@std@@@std@@11UDiagMatr@@V?$complex@N@3@@ZV?$allocator@P6AXUQureg@@V?$vector@HV?$allocator@H@std@@@std@@11UDiagMatr@@V?$complex@N@3@@Z@3@@std@@QEAA@XZ
	??1?$vector@P6AXUQureg@@V?$vector@HV?$allocator@H@std@@@std@@11V?$complex@N@3@2@ZV?$allocator@P6AXUQureg@@V?$vector@HV?$allocator@H@std@@@std@@11V?$complex@N@3@2@Z@3@@std@@QEAA@XZ
	??1?$vector@P6AXUQureg@@V?$vector@HV?$allocator@H@std@@@std@@1@ZV?$allocator@P6AXUQureg@@V?$vector@HV?$allocator@H@std@@@std@@1@Z@3@@std@@QEAA@XZ
	??1?$vector@P6AXUQureg@@V?$vector@HV?$allocator@H@std@@@std@@1HH@ZV?$allocator@P6AXUQureg@@V?$vector@HV?$allocator@H@std@@@std@@1HH@Z@3@@std@@QEAA@XZ
	??1?$vector@P6AXUQureg@@V?$vector@HV?$allocator@H@std@@@std@@1HHUCompMatr2@@@ZV?$allocator@P6AXUQureg@@V?$vector@HV?$allocator@H@std@@@std@@1HHUCompMatr2@@@Z@3@@std@@QEAA@XZ
	??1?$vector@P6AXUQureg@@V?$vector@HV?$allocator@H@std@@@std@@1HHUDiagMatr2@@@ZV?$allocator@P6AXUQureg@@V?$vector@HV?$allocator@H@std@@@std@@1HHUDiagMatr2@@@Z@3@@std@@QEAA@XZ
	??1?$vector@P6AXUQureg@@V?$vector@HV?$allocator@H@std@@@std@@1HUCompMatr1@@@ZV?$allocator@P6AXUQureg@@V?$vector@HV?$allocator@H@std@@@std@@1HUCompMatr1@@@Z@3@@std@@QEAA@XZ
	??1?$vector@P6AXUQureg@@V?$vector@HV?$allocator@H@std@@@std@@1HUDiagMatr1@@@ZV?$allocator@P6AXUQureg@@V?$vector@HV?$allocator@H@std@@@std@@1HUDiagMatr1@@@Z@3@@std@@QEAA@XZ
	??1?$vector@P6AXUQureg@@V?$vector@HV?$allocator@H@std@@@std@@1N@ZV?$allocator@P6AXUQureg@@V?$vector@HV?$allocator@H@std@@@std@@1N@Z@3@@std@@QEAA@XZ
	??1?$vector@P6AXUQureg@@V?$vector@HV?$allocator@H@std@@@std@@1V?$complex@N@3@2@ZV?$allocator@P6AXUQureg@@V?$vector@HV?$allocator@H@std@@@std@@1V?$complex@N@3@2@Z@3@@std@@QEAA@XZ
	??1?$vector@P6A_JUQureg@@V?$vector@HV?$allocator@H@std@@@std@@1@ZV?$allocator@P6A_JUQureg@@V?$vector@HV?$allocator@H@std@@@std@@1@Z@3@@std@@QEAA@XZ
	??1?$vector@PEAV?$complex@N@std@@V?$allocator@PEAV?$complex@N@std@@@2@@std@@QEAA@XZ
	??1?$vector@U?$pair@HH@std@@V?$allocator@U?$pair@HH@std@@@2@@std@@QEAA@XZ
	??1?$vector@UGateOp@@V?$allocator@UGateOp@@@std@@@std@@QEAA@XZ
	??1?$vector@UPauliStr@@V?$allocator@UPauliStr@@@std@@@std@@QEAA@XZ
	??1?$vector@USubCircuit@@V?$allocator@USubCircuit@@@std@@@std@@QEAA@XZ
	??1?$vector@UTransition@@V?$allocator@UTransition@@@std@@@std@@QEAA@XZ
	??1?$vector@U_Loop_vals_t@std@@V?$allocator@U_Loop_vals_t@std@@@2@@std@@QEAA@XZ
	??1?$vector@V?$basic_string@DU?$char_traits@D@std@@V?$allocator@D@2@@std@@V?$allocator@V?$basic_string@DU?$char_traits@D@std@@V?$allocator@D@2@@std@@@2@@std@@QEAA@XZ
	??1?$vector@V?$complex@N@std@@V?$allocator@V?$complex@N@std@@@2@@std@@QEAA@XZ
	??1?$vector@V?$tuple@UPauliStr@@V?$complex@N@std@@@std@@V?$allocator@V?$tuple@UPauliStr@@V?$complex@N@std@@@std@@@2@@std@@QEAA@XZ
	??1?$vector@V?$tuple@V?$basic_string@DU?$char_traits@D@std@@V?$allocator@D@2@@std@@V12@@std@@V?$allocator@V?$tuple@V?$basic_string@DU?$char_traits@D@std@@V?$allocator@D@2@@std@@V12@@std@@@2@@std@@QEAA@XZ
	??1?$vector@V?$tuple@V?$basic_string@DU?$char_traits@D@std@@V?$allocator@D@2@@std@@_J@std@@V?$allocator@V?$tuple@V?$basic_string@DU?$char_traits@D@std@@V?$allocator@D@2@@std@@_J@std@@@2@@std@@QEAA@XZ
	??1?$vector@V?$vector@HV?$allocator@H@std@@@std@@V?$allocator@V?$vector@HV?$allocator@H@std@@@std@@@2@@std@@QEAA@XZ
	??1?$vector@V?$vector@P6AXUQureg@@V?$vector@HV?$allocator@H@std@@@std@@1111V?$complex@N@3@2@ZV?$allocator@P6AXUQureg@@V?$vector@HV?$allocator@H@std@@@std@@1111V?$complex@N@3@2@Z@3@@std@@V?$allocator@V?$vector@P6AXUQureg@@V?$vector@HV?$allocator@H@std@@@std@@1111V?$complex@N@3@2@ZV?$allocator@P6AXUQureg@@V?$vector@HV?$allocator@H@std@@@std@@1111V?$complex@N@3@2@Z@3@@std@@@2@@std@@QEAA@XZ
	??1?$vector@V?$vector@P6AXUQureg@@V?$vector@HV?$allocator@H@std@@@std@@11UCompMatr@@@ZV?$allocator@P6AXUQureg@@V?$vector@HV?$allocator@H@std@@@std@@11UCompMatr@@@Z@3@@std@@V?$allocator@V?$vector@P6AXUQureg@@V?$vector@HV?$allocator@H@std@@@std@@11UCompMatr@@@ZV?$allocator@P6AXUQureg@@V?$vector@HV?$allocator@H@std@@@std@@11UCompMatr@@@Z@3@@std@@@2@@std@@QEAA@XZ
	??1?$vector@V?$vector@P6AXUQureg@@V?$vector@HV?$allocator@H@std@@@std@@11UDiagMatr@@V?$complex@N@3@@ZV?$allocator@P6AXUQureg@@V?$vector@HV?$allocator@H@std@@@std@@11UDiagMatr@@V?$complex@N@3@@Z@3@@std@@V?$allocator@V?$vector@P6AXUQureg@@V?$vector@HV?$allocator@H@std@@@std@@11UDiagMatr@@V?$complex@N@3@@ZV?$allocator@P6AXUQureg@@V?$vector@HV?$allocator@H@std@@@std@@11UDiagMatr@@V?$complex@N@3@@Z@3@@std@@@2@@std@@QEAA@XZ
	??1?$vector@V?$vector@V?$basic_string@DU?$char_traits@D@std@@V?$allocator@D@2@@std@@V?$allocator@V?$basic_string@DU?$char_traits@D@std@@V?$allocator@D@2@@std@@@2@@std@@V?$allocator@V?$vector@V?$basic_string@DU?$char_traits@D@std@@V?$allocator@D@2@@std@@V?$allocator@V?$basic_string@DU?$char_traits@D@std@@V?$allocator@D@2@@std@@@2@@std@@@2@@std@@QEAA@XZ
	??1?$vector@V?$vector@V?$complex@N@std@@V?$allocator@V?$complex@N@std@@@2@@std@@V?$allocator@V?$vector@V?$complex@N@std@@V?$allocator@V?$complex@N@std@@@2@@std@@@2@@std@@QEAA@XZ
	??1?$vector@V?$vector@V?$vector@V?$complex@N@std@@V?$allocator@V?$complex@N@std@@@2@@std@@V?$allocator@V?$vector@V?$complex@N@std@@V?$allocator@V?$complex@N@std@@@2@@std@@@2@@std@@V?$allocator@V?$vector@V?$vector@V?$complex@N@std@@V?$allocator@V?$complex@N@std@@@2@@std@@V?$allocator@V?$vector@V?$complex@N@std@@V?$allocator@V?$complex@N@std@@@2@@std@@@2@@std@@@2@@std@@QEAA@XZ
	??1?$vector@_JV?$allocator@_J@std@@@std@@QEAA@XZ
	??1?$vector@_KV?$allocator@_K@std@@@std@@QEAA@XZ
	??1?$vector@_NV?$allocator@_N@std@@@std@@QEAA@XZ
	??1BlockData@@QEAA@XZ
	??1DiskBackedState@@QEAA@XZ
	??1GateScheduler@@QEAA@XZ
	??1PermutationTracker@@QEAA@XZ
	??1SubCircuit@@QEAA@XZ
	??1Transition@@QEAA@XZ
	??1_Node_base@std@@UEAA@XZ
	??1_Reallocation_guard@?$vector@USubCircuit@@V?$allocator@USubCircuit@@@std@@@std@@QEAA@XZ
	??1_Reallocation_guard@?$vector@UTransition@@V?$allocator@UTransition@@@std@@@std@@QEAA@XZ
	??1_Sentry_base@?$basic_istream@DU?$char_traits@D@std@@@std@@QEAA@XZ
	??1_Sentry_base@?$basic_ostream@DU?$char_traits@D@std@@@std@@QEAA@XZ
	??1_System_error_message@std@@QEAA@XZ
	??1_Vaporization_guard@?$vector@HV?$allocator@H@std@@@std@@QEAA@XZ
	??1bad_array_new_length@std@@UEAA@XZ
	??1bad_cast@std@@UEAA@XZ
	??1error_category@std@@UEAA@XZ
	??1exception@std@@UEAA@XZ
	??1filesystem_error@filesystem@std@@UEAA@XZ
	??1invalid_argument@std@@UEAA@XZ
	??1locale@std@@QEAA@XZ
	??1path@filesystem@std@@QEAA@XZ
	??1runtime_error@std@@UEAA@XZ
	??1sentry@?$basic_istream@DU?$char_traits@D@std@@@std@@QEAA@XZ
	??1sentry@?$basic_ostream@DU?$char_traits@D@std@@@std@@QEAA@XZ
	??1system_error@std@@UEAA@XZ
	??1thread@std@@QEAA@XZ
	??4?$_Tgt_state_t@PEBD@std@@QEAAAEAV01@AEBV01@@Z
	??4?$_Tgt_state_t@V?$_String_const_iterator@V?$_String_val@U?$_Simple_types@D@std@@@std@@@std@@@std@@QEAAAEAV01@AEBV01@@Z
	??4?$basic_string@DU?$char_traits@D@std@@V?$allocator@D@2@@std@@QEAAAEAV01@$$QEAV01@@Z
	??4?$basic_string@DU?$char_traits@D@std@@V?$allocator@D@2@@std@@QEAAAEAV01@AEBV01@@Z
	??4?$vector@HV?$allocator@H@std@@@std@@QEAAAEAV01@$$QEAV01@@Z
	??4?$vector@HV?$allocator@H@std@@@std@@QEAAAEAV01@AEBV01@@Z
	??4?$vector@HV?$allocator@H@std@@@std@@QEAAAEAV01@V?$initializer_list@H@1@@Z
	??4?$vector@IV?$allocator@I@std@@@std@@QEAAAEAV01@AEBV01@@Z
	??4?$vector@UGateOp@@V?$allocator@UGateOp@@@std@@@std@@QEAAAEAV01@V?$initializer_list@UGateOp@@@1@@Z
	??4BlockData@@QEAAAEAU0@$$QEAU0@@Z
	??A?$map@V?$basic_string@DU?$char_traits@D@std@@V?$allocator@D@2@@std@@_JU?$less@V?$basic_string@DU?$char_traits@D@std@@V?$allocator@D@2@@std@@@2@V?$allocator@U?$pair@$$CBV?$basic_string@DU?$char_traits@D@std@@V?$allocator@D@2@@std@@_J@std@@@2@@std@@QEAAAEA_J$$QEAV?$basic_string@DU?$char_traits@D@std@@V?$allocator@D@2@@1@@Z
	??E?$_Tree_unchecked_const_iterator@V?$_Tree_val@U?$_Tree_simple_types@H@std@@@std@@U_Iterator_base0@2@@std@@QEAAAEAV01@XZ
	??E?$_Tree_unchecked_const_iterator@V?$_Tree_val@U?$_Tree_simple_types@U?$pair@$$CBV?$basic_string@DU?$char_traits@D@std@@V?$allocator@D@2@@std@@_J@std@@@std@@@std@@U_Iterator_base0@2@@std@@QEAAAEAV01@XZ
	??H?$_Vb_iterator@U?$_Wrap_alloc@V?$allocator@I@std@@@std@@@std@@QEBA?AV01@_J@Z
	??R?$less@V?$basic_string@DU?$char_traits@D@std@@V?$allocator@D@2@@std@@@std@@QEBA_NAEBV?$basic_string@DU?$char_traits@D@std@@V?$allocator@D@2@@1@0@Z
	??R?$mersenne_twister@_K$0EA@$0BDI@$0JM@$0BP@$0?EKPNJAKFFGJJOGBH@$0BN@$0BB@$0HBNGHPPPONKGAAAA@$0CF@$0?IBBCAAAAAAAAA@$0CL@@std@@QEAA_KXZ
	??Y?$basic_string@DU?$char_traits@D@std@@V?$allocator@D@2@@std@@QEAAAEAV01@AEBV01@@Z
	??Y?$basic_string@DU?$char_traits@D@std@@V?$allocator@D@2@@std@@QEAAAEAV01@QEBD@Z
	??_7?$_Func_impl_no_alloc@P6AXXZX$$V@std@@6B@
	??_7?$_Node_class@DV?$regex_traits@D@std@@@std@@6B@
	??_7?$_Node_str@D@std@@6B@
	??_7?$basic_filebuf@DU?$char_traits@D@std@@@std@@6B@
	??_7?$basic_ifstream@DU?$char_traits@D@std@@@std@@6B@
	??_7?$basic_ostringstream@DU?$char_traits@D@std@@V?$allocator@D@2@@std@@6B@
	??_7?$basic_stringbuf@DU?$char_traits@D@std@@V?$allocator@D@2@@std@@6B@
	??_7?$basic_stringstream@DU?$char_traits@D@std@@V?$allocator@D@2@@std@@6B@
	??_7?$collate@D@std@@6B@
	??_7_Generic_error_category@std@@6B@
	??_7_Node_assert@std@@6B@
	??_7_Node_back@std@@6B@
	??_7_Node_base@std@@6B@
	??_7_Node_capture@std@@6B@
	??_7_Node_end_group@std@@6B@
	??_7_Node_end_rep@std@@6B@
	??_7_Node_endif@std@@6B@
	??_7_Node_if@std@@6B@
	??_7_Node_rep@std@@6B@
	??_7_Root_node@std@@6B@
	??_7_System_error@std@@6B@
	??_7_System_error_category@std@@6B@
	??_7bad_alloc@std@@6B@
	??_7bad_array_new_length@std@@6B@
	??_7bad_cast@std@@6B@
	??_7exception@std@@6B@
	??_7filesystem_error@filesystem@std@@6B@
	??_7invalid_argument@std@@6B@
	??_7logic_error@std@@6B@
	??_7runtime_error@std@@6B@
	??_7system_error@std@@6B@
	??_D?$basic_ifstream@DU?$char_traits@D@std@@@std@@QEAAXXZ
	??_D?$basic_ostringstream@DU?$char_traits@D@std@@V?$allocator@D@2@@std@@QEAAXXZ
	??_D?$basic_stringstream@DU?$char_traits@D@std@@V?$allocator@D@2@@std@@QEAAXXZ
	??_F?$complex@N@std@@QEAAXXZ
	??_H@YAXPEAX_K1P6APEAX0@Z@Z
	?_Add_backreference@?$_Builder@PEBDDV?$regex_traits@D@std@@@std@@QEAAXI@Z
	?_Add_bol@?$_Builder@PEBDDV?$regex_traits@D@std@@@std@@QEAAXXZ
	?_Add_char@?$_Builder@PEBDDV?$regex_traits@D@std@@@std@@QEAAXD@Z
	?_Add_char_to_array@?$_Builder@PEBDDV?$regex_traits@D@std@@@std@@AEAAXD@Z
	?_Add_char_to_bitmap@?$_Builder@PEBDDV?$regex_traits@D@std@@@std@@AEAAXD@Z
	?_Add_char_to_class@?$_Builder@PEBDDV?$regex_traits@D@std@@@std@@QEAAXD@Z
	?_Add_class@?$_Builder@PEBDDV?$regex_traits@D@std@@@std@@QEAAXXZ
	?_Add_coll@?$_Builder@PEBDDV?$regex_traits@D@std@@@std@@QEAAXPEBD0_J@Z
	?_Add_dot@?$_Builder@PEBDDV?$regex_traits@D@std@@@std@@QEAAXXZ
	?_Add_elts@?$_Builder@PEBDDV?$regex_traits@D@std@@@std@@AEAAXPEAV?$_Node_class@DV?$regex_traits@D@std@@@2@F_N@Z
	?_Add_eol@?$_Builder@PEBDDV?$regex_traits@D@std@@@std@@QEAAXXZ
	?_Add_equiv@?$_Builder@PEBDDV?$regex_traits@D@std@@@std@@QEAAXPEBD0_J@Z
	?_Add_named_class@?$_Builder@PEBDDV?$regex_traits@D@std@@@std@@QEAAXF_N@Z
	?_Add_range2@?$_Builder@PEBDDV?$regex_traits@D@std@@@std@@QEAAXDD@Z
	?_Add_rep@?$_Builder@PEBDDV?$regex_traits@D@std@@@std@@QEAAXHH_N@Z
	?_Add_str_node@?$_Builder@PEBDDV?$regex_traits@D@std@@@std@@AEAAXXZ
	?_Add_wbound@?$_Builder@PEBDDV?$regex_traits@D@std@@@std@@QEAAXXZ
	?_Alternative@?$_Parser@PEBDDV?$regex_traits@D@std@@@std@@AEAA_NXZ
	?_Assign_grow@?$_Hash_vec@V?$allocator@V?$_List_unchecked_iterator@V?$_List_val@U?$_List_simple_types@U?$pair@$$CBHH@std@@@std@@@std@@@std@@@std@@@std@@QEAAX_KV?$_List_unchecked_iterator@V?$_List_val@U?$_List_simple_types@U?$pair@$$CBHH@std@@@std@@@std@@@2@@Z
	?_Assign_grow@?$_Hash_vec@V?$allocator@V?$_List_unchecked_iterator@V?$_List_val@U?$_List_simple_types@U?$pair@$$CB_KV?$vector@V?$tuple@UPauliStr@@V?$complex@N@std@@@std@@V?$allocator@V?$tuple@UPauliStr@@V?$complex@N@std@@@std@@@2@@std@@@std@@@std@@@std@@@std@@@std@@@std@@QEAAX_KV?$_List_unchecked_iterator@V?$_List_val@U?$_List_simple_types@U?$pair@$$CB_KV?$vector@V?$tuple@UPauliStr@@V?$complex@N@std@@@std@@V?$allocator@V?$tuple@UPauliStr@@V?$complex@N@std@@@std@@@2@@std@@@std@@@std@@@std@@@2@@Z
	?_AtomEscape@?$_Parser@PEBDDV?$regex_traits@D@std@@@std@@AEAAXXZ
	?_Beg_expr@?$_Builder@PEBDDV?$regex_traits@D@std@@@std@@AEBA_NPEAV_Node_base@2@@Z
	?_Beg_expr@?$_Builder@PEBDDV?$regex_traits@D@std@@@std@@QEBA_NXZ
	?_Begin_assert_group@?$_Builder@PEBDDV?$regex_traits@D@std@@@std@@QEAAPEAV_Node_base@2@_N@Z
	?_Begin_capture_group@?$_Builder@PEBDDV?$regex_traits@D@std@@@std@@QEAAPEAV_Node_base@2@I@Z
	?_Begin_group@?$_Builder@PEBDDV?$regex_traits@D@std@@@std@@QEAAPEAV_Node_base@2@XZ
	?_Begin_if@?$_Builder@PEBDDV?$regex_traits@D@std@@@std@@QEAAPEAV_Node_base@2@PEAV32@@Z
	?_Better_match@?$_Matcher@PEBDDV?$regex_traits@D@std@@PEBD@std@@AEAA_NXZ
	?_Better_match@?$_Matcher@V?$_String_const_iterator@V?$_String_val@U?$_Simple_types@D@std@@@std@@@std@@DV?$regex_traits@D@2@V12@@std@@AEAA_NXZ
	?_Buy_raw@?$vector@UGateOp@@V?$allocator@UGateOp@@@std@@@std@@AEAAX_K@Z
	?_Calculate_loop_simplicity@std@@YAXPEAV_Node_base@1@0PEAV_Node_rep@1@@Z
	?_Change_array@?$vector@HV?$allocator@H@std@@@std@@AEAAXQEAH_K1@Z
	?_Change_array@?$vector@IV?$allocator@I@std@@@std@@AEAAXQEAI_K1@Z
	?_Change_array@?$vector@U?$pair@HH@std@@V?$allocator@U?$pair@HH@std@@@2@@std@@AEAAXQEAU?$pair@HH@2@_K1@Z
	?_Char_to_elts@?$_Builder@PEBDDV?$regex_traits@D@std@@@std@@AEAAXPEBD0_JPEAPEAU?$_Sequence@D@2@@Z
	?_CharacterClass@?$_Parser@PEBDDV?$regex_traits@D@std@@@std@@AEAAXXZ
	?_CharacterClassEscape@?$_Parser@PEBDDV?$regex_traits@D@std@@@std@@AEAA_N_N@Z
	?_CharacterEscape@?$_Parser@PEBDDV?$regex_traits@D@std@@@std@@AEAA_NXZ
	?_ClassAtom@?$_Parser@PEBDDV?$regex_traits@D@std@@@std@@AEAA?AW4_Prs_ret@2@XZ
	?_ClassEscape2@?$_Parser@PEBDDV?$regex_traits@D@std@@@std@@AEAA?AW4_Prs_ret@2@XZ
	?_ClassRanges@?$_Parser@PEBDDV?$regex_traits@D@std@@@std@@AEAAXXZ
	?_Clear_and_reserve_geometric@?$vector@HV?$allocator@H@std@@@std@@AEAAX_K@Z
	?_Clear_and_reserve_geometric@?$vector@UGateOp@@V?$allocator@UGateOp@@@std@@@std@@AEAAX_K@Z
	?_Compile@?$_Parser@PEBDDV?$regex_traits@D@std@@@std@@QEAAPEAV_Root_node@2@XZ
	?_Copy@?$_Func_impl_no_alloc@P6AXXZX$$V@std@@EEBAPEAV?$_Func_base@X$$V@2@PEAX@Z
	?_Deallocate_for_capacity@?$basic_string@DU?$char_traits@D@std@@V?$allocator@D@2@@std@@CAXAEAV?$allocator@D@2@QEAD_K@Z
	?_Deallocate_for_capacity@?$basic_string@_WU?$char_traits@_W@std@@V?$allocator@_W@2@@std@@CAXAEAV?$allocator@_W@2@QEA_W_K@Z
	?_DecimalDigits2@?$_Parser@PEBDDV?$regex_traits@D@std@@@std@@AEAA_NW4error_type@regex_constants@2@H@Z
	?_Delete_this@?$_Func_impl_no_alloc@P6AXXZX$$V@std@@EEAAX_N@Z
	?_Disjunction@?$_Parser@PEBDDV?$regex_traits@D@std@@@std@@AEAAXXZ
	?_Do_assert_group@?$_Parser@PEBDDV?$regex_traits@D@std@@@std@@AEAAX_N@Z
	?_Do_call@?$_Func_impl_no_alloc@P6AXXZX$$V@std@@EEAAXXZ
	?_Do_capture_group@?$_Parser@PEBDDV?$regex_traits@D@std@@@std@@AEAAXXZ
	?_Do_class@?$_Matcher@PEBDDV?$regex_traits@D@std@@PEBD@std@@AEAA_NPEAV_Node_base@2@@Z
	?_Do_class@?$_Matcher@V?$_String_const_iterator@V?$_String_val@U?$_Simple_types@D@std@@@std@@@std@@DV?$regex_traits@D@2@V12@@std@@AEAA_NPEAV_Node_base@2@@Z
	?_Do_digits@?$_Parser@PEBDDV?$regex_traits@D@std@@@std@@AEAAHHHW4error_type@regex_constants@2@@Z
	?_Do_ex_class@?$_Parser@PEBDDV?$regex_traits@D@std@@@std@@AEAAXW4_Meta_type@2@@Z
	?_Do_ffn@?$_Parser@PEBDDV?$regex_traits@D@std@@@std@@AEAA_ND@Z
	?_Do_ffnx@?$_Parser@PEBDDV?$regex_traits@D@std@@@std@@AEAA_ND@Z
	?_Do_if@?$_Matcher@PEBDDV?$regex_traits@D@std@@PEBD@std@@AEAA_NPEAV_Node_if@2@@Z
	?_Do_if@?$_Matcher@V?$_String_const_iterator@V?$_String_val@U?$_Simple_types@D@std@@@std@@@std@@DV?$regex_traits@D@2@V12@@std@@AEAA_NPEAV_Node_if@2@@Z
	?_Do_noncapture_group@?$_Parser@PEBDDV?$regex_traits@D@std@@@std@@AEAAXXZ
	?_Do_rep0@?$_Matcher@PEBDDV?$regex_traits@D@std@@PEBD@std@@AEAA_NPEAV_Node_rep@2@_N@Z
	?_Do_rep0@?$_Matcher@V?$_String_const_iterator@V?$_String_val@U?$_Simple_types@D@std@@@std@@@std@@DV?$regex_traits@D@2@V12@@std@@AEAA_NPEAV_Node_rep@2@_N@Z
	?_Do_rep@?$_Matcher@PEBDDV?$regex_traits@D@std@@PEBD@std@@AEAA_NPEAV_Node_rep@2@_NH@Z
	?_Do_rep@?$_Matcher@V?$_String_const_iterator@V?$_String_val@U?$_Simple_types@D@std@@@std@@@std@@DV?$regex_traits@D@2@V12@@std@@AEAA_NPEAV_Node_rep@2@_NH@Z
	?_Else_if@?$_Builder@PEBDDV?$regex_traits@D@std@@@std@@QEAAXPEAV_Node_base@2@0@Z
	?_End_assert_group@?$_Builder@PEBDDV?$regex_traits@D@std@@@std@@QEAAXPEAV_Node_base@2@@Z
	?_End_group@?$_Builder@PEBDDV?$regex_traits@D@std@@@std@@QEAAXPEAV_Node_base@2@@Z
	?_End_pattern@?$_Builder@PEBDDV?$regex_traits@D@std@@@std@@QEAAPEAV_Root_node@2@XZ
	?_Endwrite@?$basic_filebuf@DU?$char_traits@D@std@@@std@@IEAA_NXZ
	?_Error@?$_Parser@PEBDDV?$regex_traits@D@std@@@std@@AEAAXW4error_type@regex_constants@2@@Z
	?_Expect@?$_Parser@PEBDDV?$regex_traits@D@std@@@std@@AEAAXW4_Meta_type@2@W4error_type@regex_constants@2@@Z
	?_Find_root_name_end@filesystem@std@@YAPEB_WQEB_W0@Z
	?_Forced_rehash@?$_Hash@V?$_Umap_traits@HHV?$_Uhash_compare@HU?$hash@H@std@@U?$equal_to@H@2@@std@@V?$allocator@U?$pair@$$CBHH@std@@@2@$0A@@std@@@std@@IEAAX_K@Z
	?_Forced_rehash@?$_Hash@V?$_Umap_traits@_KV?$vector@V?$tuple@UPauliStr@@V?$complex@N@std@@@std@@V?$allocator@V?$tuple@UPauliStr@@V?$complex@N@std@@@std@@@2@@std@@V?$_Uhash_compare@_KU?$hash@_K@std@@U?$equal_to@_K@2@@2@V?$allocator@U?$pair@$$CB_KV?$vector@V?$tuple@UPauliStr@@V?$complex@N@std@@@std@@V?$allocator@V?$tuple@UPauliStr@@V?$complex@N@std@@@std@@@2@@std@@@std@@@2@$0A@@std@@@std@@IEAAX_K@Z
	?_Get@?$_Func_impl_no_alloc@P6AXXZX$$V@std@@EEBAPEBXXZ
	?_Get_bmax@?$_Builder@PEBDDV?$regex_traits@D@std@@@std@@AEBAIXZ
	?_Get_ncap@?$_Matcher@PEBDDV?$regex_traits@D@std@@PEBD@std@@AEBAIXZ
	?_Get_ncap@?$_Matcher@V?$_String_const_iterator@V?$_String_val@U?$_Simple_types@D@std@@@std@@@std@@DV?$regex_traits@D@2@V12@@std@@AEBAIXZ
	?_Get_tmax@?$_Builder@PEBDDV?$regex_traits@D@std@@@std@@AEBAIXZ
	?_Getmark@?$_Builder@PEBDDV?$regex_traits@D@std@@@std@@QEBAPEAV_Node_base@2@XZ
	?_Growmap@?$deque@UBlockData@@V?$allocator@UBlockData@@@std@@@std@@AEAAX_K@Z
	?_Growmap@?$deque@UGateOp@@V?$allocator@UGateOp@@@std@@@std@@AEAAX_K@Z
	?_HexDigits@?$_Parser@PEBDDV?$regex_traits@D@std@@@std@@AEAAXH@Z
	?_IdentityEscape@?$_Parser@PEBDDV?$regex_traits@D@std@@@std@@AEAA_NXZ
	?_Insert2@?$_Buf@D@std@@QEAAXD@Z
	?_Insert_node@?$_Builder@PEBDDV?$regex_traits@D@std@@@std@@CAXPEAV_Node_base@2@0@Z
	?_Insert_node@?$_Tree_val@U?$_Tree_simple_types@H@std@@@std@@QEAAPEAU?$_Tree_node@HPEAX@2@U?$_Tree_id@PEAU?$_Tree_node@HPEAX@std@@@2@QEAU32@@Z
	?_Insert_node@?$_Tree_val@U?$_Tree_simple_types@U?$pair@$$CBV?$basic_string@DU?$char_traits@D@std@@V?$allocator@D@2@@std@@_J@std@@@std@@@std@@QEAAPEAU?$_Tree_node@U?$pair@$$CBV?$basic_string@DU?$char_traits@D@std@@V?$allocator@D@2@@std@@_J@std@@PEAX@2@U?$_Tree_id@PEAU?$_Tree_node@U?$pair@$$CBV?$basic_string@DU?$char_traits@D@std@@V?$allocator@D@2@@std@@_J@std@@PEAX@std@@@2@QEAU32@@Z
	?_Insert_x@?$vector@_NV?$allocator@_N@std@@@std@@QEAA_KV?$_Vb_const_iterator@U?$_Wrap_alloc@V?$allocator@I@std@@@std@@@2@_K@Z
	?_IsIdentityEscape@?$_Parser@PEBDDV?$regex_traits@D@std@@@std@@AEBA_NXZ
	?_Is_esc@?$_Parser@PEBDDV?$regex_traits@D@std@@@std@@AEBA_NXZ
	?_Is_wbound@?$_Matcher@PEBDDV?$regex_traits@D@std@@PEBD@std@@AEBA_NXZ
	?_Is_wbound@?$_Matcher@V?$_String_const_iterator@V?$_String_val@U?$_Simple_types@D@std@@@std@@@std@@DV?$regex_traits@D@2@V12@@std@@AEBA_NXZ
	?_Link_node@?$_Builder@PEBDDV?$regex_traits@D@std@@@std@@AEAAPEAV_Node_base@2@PEAV32@@Z
	?_Lock@?$basic_filebuf@DU?$char_traits@D@std@@@std@@UEAAXXZ
	?_Make_ec@std@@YA?AVerror_code@1@W4__std_win_error@@@Z
	?_Mark_final@?$_Builder@PEBDDV?$regex_traits@D@std@@@std@@QEAAXXZ
	?_Match_pat@?$_Matcher@PEBDDV?$regex_traits@D@std@@PEBD@std@@AEAA_NPEAV_Node_base@2@@Z
	?_Match_pat@?$_Matcher@V?$_String_const_iterator@V?$_String_val@U?$_Simple_types@D@std@@@std@@@std@@DV?$regex_traits@D@2@V12@@std@@AEAA_NPEAV_Node_base@2@@Z
	?_Move@?$_Func_impl_no_alloc@P6AXXZX$$V@std@@EEAAPEAV?$_Func_base@X$$V@2@PEAX@Z
	?_Negate@?$_Builder@PEBDDV?$regex_traits@D@std@@@std@@QEAAXXZ
	?_New_node@?$_Builder@PEBDDV?$regex_traits@D@std@@@std@@AEAAPEAV_Node_base@2@W4_Node_type@2@@Z
	?_Next@?$_Parser@PEBDDV?$regex_traits@D@std@@@std@@AEAAXXZ
	?_OctalDigits@?$_Parser@PEBDDV?$regex_traits@D@std@@@std@@AEAA_NXZ
	?_Pretty_message@filesystem_error@filesystem@std@@CA?AV?$basic_string@DU?$char_traits@D@std@@V?$allocator@D@2@@3@V?$basic_string_view@DU?$char_traits@D@std@@@3@AEBVpath@23@1@Z
	?_Quantifier@?$_Parser@PEBDDV?$regex_traits@D@std@@@std@@AEAAXXZ
	?_Reset_back@?$basic_filebuf@DU?$char_traits@D@std@@@std@@AEAAXXZ
	?_Resize@?$match_results@PEBDV?$allocator@V?$sub_match@PEBD@std@@@std@@@std@@QEAAXI@Z
	?_Resize@?$match_results@V?$_String_const_iterator@V?$_String_val@U?$_Simple_types@D@std@@@std@@@std@@V?$allocator@V?$sub_match@V?$_String_const_iterator@V?$_String_val@U?$_Simple_types@D@std@@@std@@@std@@@std@@@2@@std@@QEAAXI@Z
	?_Setlong@?$_Builder@PEBDDV?$regex_traits@D@std@@@std@@QEAAXXZ
	?_Skip@?$_Matcher@V?$_String_const_iterator@V?$_String_val@U?$_Simple_types@D@std@@@std@@@std@@DV?$regex_traits@D@2@V12@@std@@QEAA?AV?$_String_const_iterator@V?$_String_val@U?$_Simple_types@D@std@@@std@@@2@V32@0PEAV_Node_base@2@@Z
	?_Target_type@?$_Func_impl_no_alloc@P6AXXZX$$V@std@@EEBAAEBVtype_info@@XZ
	?_Throw_bad_array_new_length@std@@YAXXZ
	?_Throw_bad_cast@std@@YAXXZ
	?_Throw_fs_error@filesystem@std@@YAXPEBDAEBVerror_code@2@AEBVpath@12@@Z
	?_Throw_system_error@std@@YAXW4errc@1@@Z
	?_Throw_system_error_from_std_win_error@std@@YAXW4__std_win_error@@@Z
	?_Throw_tree_length_error@std@@YAXXZ
	?_Tidy@?$_Builder@PEBDDV?$regex_traits@D@std@@@std@@QEAAXXZ
	?_Tidy@?$basic_regex@DV?$regex_traits@D@std@@@std@@AEAAXXZ
	?_Tidy@?$deque@UGateOp@@V?$allocator@UGateOp@@@std@@@std@@AEAAXXZ
	?_Tidy@?$vector@DV?$allocator@D@std@@@std@@AEAAXXZ
	?_Tidy@?$vector@HV?$allocator@H@std@@@std@@AEAAXXZ
	?_Tidy@?$vector@IV?$allocator@I@std@@@std@@AEAAXXZ
	?_Tidy@?$vector@NV?$allocator@N@std@@@std@@AEAAXXZ
	?_Tidy@?$vector@P6ANUQureg@@V?$vector@HV?$allocator@H@std@@@std@@1@ZV?$allocator@P6ANUQureg@@V?$vector@HV?$allocator@H@std@@@std@@1@Z@3@@std@@AEAAXXZ
	?_Tidy@?$vector@P6AXPEANUQureg@@V?$vector@HV?$allocator@H@std@@@std@@@ZV?$allocator@P6AXPEANUQureg@@V?$vector@HV?$allocator@H@std@@@std@@@Z@3@@std@@AEAAXXZ
	?_Tidy@?$vector@P6AXUQureg@@V?$vector@HV?$allocator@H@std@@@std@@1111V?$complex@N@3@2@ZV?$allocator@P6AXUQureg@@V?$vector@HV?$allocator@H@std@@@std@@1111V?$complex@N@3@2@Z@3@@std@@AEAAXXZ
	?_Tidy@?$vector@P6AXUQureg@@V?$vector@HV?$allocator@H@std@@@std@@1111V?$complex@N@3@2_J@ZV?$allocator@P6AXUQureg@@V?$vector@HV?$allocator@H@std@@@std@@1111V?$complex@N@3@2_J@Z@3@@std@@AEAAXXZ
	?_Tidy@?$vector@P6AXUQureg@@V?$vector@HV?$allocator@H@std@@@std@@11UCompMatr@@@ZV?$allocator@P6AXUQureg@@V?$vector@HV?$allocator@H@std@@@std@@11UCompMatr@@@Z@3@@std@@AEAAXXZ
	?_Tidy@?$vector@P6AXUQureg@@V?$vector@HV?$allocator@H@std@@@std@@11UDiagMatr@@V?$complex@N@3@@ZV?$allocator@P6AXUQureg@@V?$vector@HV?$allocator@H@std@@@std@@11UDiagMatr@@V?$complex@N@3@@Z@3@@std@@AEAAXXZ
	?_Tidy@?$vector@P6AXUQureg@@V?$vector@HV?$allocator@H@std@@@std@@11V?$complex@N@3@2@ZV?$allocator@P6AXUQureg@@V?$vector@HV?$allocator@H@std@@@std@@11V?$complex@N@3@2@Z@3@@std@@AEAAXXZ
	?_Tidy@?$vector@P6AXUQureg@@V?$vector@HV?$allocator@H@std@@@std@@1@ZV?$allocator@P6AXUQureg@@V?$vector@HV?$allocator@H@std@@@std@@1@Z@3@@std@@AEAAXXZ
	?_Tidy@?$vector@P6AXUQureg@@V?$vector@HV?$allocator@H@std@@@std@@1HH@ZV?$allocator@P6AXUQureg@@V?$vector@HV?$allocator@H@std@@@std@@1HH@Z@3@@std@@AEAAXXZ
	?_Tidy@?$vector@P6AXUQureg@@V?$vector@HV?$allocator@H@std@@@std@@1HHUCompMatr2@@@ZV?$allocator@P6AXUQureg@@V?$vector@HV?$allocator@H@std@@@std@@1HHUCompMatr2@@@Z@3@@std@@AEAAXXZ
	?_Tidy@?$vector@P6AXUQureg@@V?$vector@HV?$allocator@H@std@@@std@@1HHUDiagMatr2@@@ZV?$allocator@P6AXUQureg@@V?$vector@HV?$allocator@H@std@@@std@@1HHUDiagMatr2@@@Z@3@@std@@AEAAXXZ
	?_Tidy@?$vector@P6AXUQureg@@V?$vector@HV?$allocator@H@std@@@std@@1HUCompMatr1@@@ZV?$allocator@P6AXUQureg@@V?$vector@HV?$allocator@H@std@@@std@@1HUCompMatr1@@@Z@3@@std@@AEAAXXZ
	?_Tidy@?$vector@P6AXUQureg@@V?$vector@HV?$allocator@H@std@@@std@@1HUDiagMatr1@@@ZV?$allocator@P6AXUQureg@@V?$vector@HV?$allocator@H@std@@@std@@1HUDiagMatr1@@@Z@3@@std@@AEAAXXZ
	?_Tidy@?$vector@P6AXUQureg@@V?$vector@HV?$allocator@H@std@@@std@@1N@ZV?$allocator@P6AXUQureg@@V?$vector@HV?$allocator@H@std@@@std@@1N@Z@3@@std@@AEAAXXZ
	?_Tidy@?$vector@P6AXUQureg@@V?$vector@HV?$allocator@H@std@@@std@@1V?$complex@N@3@2@ZV?$allocator@P6AXUQureg@@V?$vector@HV?$allocator@H@std@@@std@@1V?$complex@N@3@2@Z@3@@std@@AEAAXXZ
	?_Tidy@?$vector@P6A_JUQureg@@V?$vector@HV?$allocator@H@std@@@std@@1@ZV?$allocator@P6A_JUQureg@@V?$vector@HV?$allocator@H@std@@@std@@1@Z@3@@std@@AEAAXXZ
	?_Tidy@?$vector@U?$pair@HH@std@@V?$allocator@U?$pair@HH@std@@@2@@std@@AEAAXXZ
	?_Tidy@?$vector@UGateOp@@V?$allocator@UGateOp@@@std@@@std@@AEAAXXZ
	?_Tidy@?$vector@UPauliStr@@V?$allocator@UPauliStr@@@std@@@std@@AEAAXXZ
	?_Tidy@?$vector@U_Grp_t@?$_Tgt_state_t@PEBD@std@@V?$allocator@U_Grp_t@?$_Tgt_state_t@PEBD@std@@@3@@std@@AEAAXXZ
	?_Tidy@?$vector@U_Grp_t@?$_Tgt_state_t@V?$_String_const_iterator@V?$_String_val@U?$_Simple_types@D@std@@@std@@@std@@@std@@V?$allocator@U_Grp_t@?$_Tgt_state_t@V?$_String_const_iterator@V?$_String_val@U?$_Simple_types@D@std@@@std@@@std@@@std@@@3@@std@@AEAAXXZ
	?_Tidy@?$vector@V?$basic_string@DU?$char_traits@D@std@@V?$allocator@D@2@@std@@V?$allocator@V?$basic_string@DU?$char_traits@D@std@@V?$allocator@D@2@@std@@@2@@std@@AEAAXXZ
	?_Tidy@?$vector@V?$complex@N@std@@V?$allocator@V?$complex@N@std@@@2@@std@@AEAAXXZ
	?_Tidy@?$vector@V?$sub_match@V?$_String_const_iterator@V?$_String_val@U?$_Simple_types@D@std@@@std@@@std@@@std@@V?$allocator@V?$sub_match@V?$_String_const_iterator@V?$_String_val@U?$_Simple_types@D@std@@@std@@@std@@@std@@@2@@std@@AEAAXXZ
	?_Tidy@?$vector@V?$tuple@V?$basic_string@DU?$char_traits@D@std@@V?$allocator@D@2@@std@@V12@@std@@V?$allocator@V?$tuple@V?$basic_string@DU?$char_traits@D@std@@V?$allocator@D@2@@std@@V12@@std@@@2@@std@@AEAAXXZ
	?_Tidy@?$vector@V?$tuple@V?$basic_string@DU?$char_traits@D@std@@V?$allocator@D@2@@std@@_J@std@@V?$allocator@V?$tuple@V?$basic_string@DU?$char_traits@D@std@@V?$allocator@D@2@@std@@_J@std@@@2@@std@@AEAAXXZ
	?_Tidy@?$vector@V?$vector@HV?$allocator@H@std@@@std@@V?$allocator@V?$vector@HV?$allocator@H@std@@@std@@@2@@std@@AEAAXXZ
	?_Tidy@?$vector@V?$vector@P6AXUQureg@@V?$vector@HV?$allocator@H@std@@@std@@1111V?$complex@N@3@2@ZV?$allocator@P6AXUQureg@@V?$vector@HV?$allocator@H@std@@@std@@1111V?$complex@N@3@2@Z@3@@std@@V?$allocator@V?$vector@P6AXUQureg@@V?$vector@HV?$allocator@H@std@@@std@@1111V?$complex@N@3@2@ZV?$allocator@P6AXUQureg@@V?$vector@HV?$allocator@H@std@@@std@@1111V?$complex@N@3@2@Z@3@@std@@@2@@std@@AEAAXXZ
	?_Tidy@?$vector@V?$vector@P6AXUQureg@@V?$vector@HV?$allocator@H@std@@@std@@11UCompMatr@@@ZV?$allocator@P6AXUQureg@@V?$vector@HV?$allocator@H@std@@@std@@11UCompMatr@@@Z@3@@std@@V?$allocator@V?$vector@P6AXUQureg@@V?$vector@HV?$allocator@H@std@@@std@@11UCompMatr@@@ZV?$allocator@P6AXUQureg@@V?$vector@HV?$allocator@H@std@@@std@@11UCompMatr@@@Z@3@@std@@@2@@std@@AEAAXXZ
	?_Tidy@?$vector@V?$vector@P6AXUQureg@@V?$vector@HV?$allocator@H@std@@@std@@11UDiagMatr@@V?$complex@N@3@@ZV?$allocator@P6AXUQureg@@V?$vector@HV?$allocator@H@std@@@std@@11UDiagMatr@@V?$complex@N@3@@Z@3@@std@@V?$allocator@V?$vector@P6AXUQureg@@V?$vector@HV?$allocator@H@std@@@std@@11UDiagMatr@@V?$complex@N@3@@ZV?$allocator@P6AXUQureg@@V?$vector@HV?$allocator@H@std@@@std@@11UDiagMatr@@V?$complex@N@3@@Z@3@@std@@@2@@std@@AEAAXXZ
	?_Tidy@?$vector@V?$vector@V?$basic_string@DU?$char_traits@D@std@@V?$allocator@D@2@@std@@V?$allocator@V?$basic_string@DU?$char_traits@D@std@@V?$allocator@D@2@@std@@@2@@std@@V?$allocator@V?$vector@V?$basic_string@DU?$char_traits@D@std@@V?$allocator@D@2@@std@@V?$allocator@V?$basic_string@DU?$char_traits@D@std@@V?$allocator@D@2@@std@@@2@@std@@@2@@std@@AEAAXXZ
	?_Tidy@?$vector@V?$vector@V?$complex@N@std@@V?$allocator@V?$complex@N@std@@@2@@std@@V?$allocator@V?$vector@V?$complex@N@std@@V?$allocator@V?$complex@N@std@@@2@@std@@@2@@std@@AEAAXXZ
	?_Tidy@?$vector@V?$vector@V?$vector@V?$complex@N@std@@V?$allocator@V?$complex@N@std@@@2@@std@@V?$allocator@V?$vector@V?$complex@N@std@@V?$allocator@V?$complex@N@std@@@2@@std@@@2@@std@@V?$allocator@V?$vector@V?$vector@V?$complex@N@std@@V?$allocator@V?$complex@N@std@@@2@@std@@V?$allocator@V?$vector@V?$complex@N@std@@V?$allocator@V?$complex@N@std@@@2@@std@@@2@@std@@@2@@std@@AEAAXXZ
	?_Tidy@?$vector@_JV?$allocator@_J@std@@@std@@AEAAXXZ
	?_Tidy@?$vector@_KV?$allocator@_K@std@@@std@@AEAAXXZ
	?_Tidy_deallocate@?$basic_string@DU?$char_traits@D@std@@V?$allocator@D@2@@std@@AEAAXXZ
	?_Tidy_deallocate@?$basic_string@_WU?$char_traits@_W@std@@V?$allocator@_W@2@@std@@AEAAXXZ
	?_Trans@?$_Parser@PEBDDV?$regex_traits@D@std@@@std@@AEAAXXZ
	?_Unlock@?$basic_filebuf@DU?$char_traits@D@std@@@std@@UEAAXXZ
	?_Wrapped_disjunction@?$_Parser@PEBDDV?$regex_traits@D@std@@@std@@AEAA_NXZ
	?_Xlen@?$deque@UBlockData@@V?$allocator@UBlockData@@@std@@@std@@CAXXZ
	?_Xlen@?$deque@UGateOp@@V?$allocator@UGateOp@@@std@@@std@@CAXXZ
	?_Xlen@?$vector@_NV?$allocator@_N@std@@@std@@SAXXZ
	?_Xlen_string@std@@YAXXZ
	?_Xlength@?$vector@DV?$allocator@D@std@@@std@@CAXXZ
	?_Xlength@?$vector@HV?$allocator@H@std@@@std@@CAXXZ
	?_Xlength@?$vector@IV?$allocator@I@std@@@std@@CAXXZ
	?_Xlength@?$vector@NV?$allocator@N@std@@@std@@CAXXZ
	?_Xlength@?$vector@P6AXUQureg@@V?$vector@HV?$allocator@H@std@@@std@@1111V?$complex@N@3@2@ZV?$allocator@P6AXUQureg@@V?$vector@HV?$allocator@H@std@@@std@@1111V?$complex@N@3@2@Z@3@@std@@CAXXZ
	?_Xlength@?$vector@P6AXUQureg@@V?$vector@HV?$allocator@H@std@@@std@@11UCompMatr@@@ZV?$allocator@P6AXUQureg@@V?$vector@HV?$allocator@H@std@@@std@@11UCompMatr@@@Z@3@@std@@CAXXZ
	?_Xlength@?$vector@P6AXUQureg@@V?$vector@HV?$allocator@H@std@@@std@@11UDiagMatr@@V?$complex@N@3@@ZV?$allocator@P6AXUQureg@@V?$vector@HV?$allocator@H@std@@@std@@11UDiagMatr@@V?$complex@N@3@@Z@3@@std@@CAXXZ
	?_Xlength@?$vector@PEAV?$complex@N@std@@V?$allocator@PEAV?$complex@N@std@@@2@@std@@CAXXZ
	?_Xlength@?$vector@U?$pair@HH@std@@V?$allocator@U?$pair@HH@std@@@2@@std@@CAXXZ
	?_Xlength@?$vector@UGateOp@@V?$allocator@UGateOp@@@std@@@std@@CAXXZ
	?_Xlength@?$vector@UPauliStr@@V?$allocator@UPauliStr@@@std@@@std@@CAXXZ
	?_Xlength@?$vector@USubCircuit@@V?$allocator@USubCircuit@@@std@@@std@@CAXXZ
	?_Xlength@?$vector@UTransition@@V?$allocator@UTransition@@@std@@@std@@CAXXZ
	?_Xlength@?$vector@U_Grp_t@?$_Tgt_state_t@PEBD@std@@V?$allocator@U_Grp_t@?$_Tgt_state_t@PEBD@std@@@3@@std@@CAXXZ
	?_Xlength@?$vector@U_Grp_t@?$_Tgt_state_t@V?$_String_const_iterator@V?$_String_val@U?$_Simple_types@D@std@@@std@@@std@@@std@@V?$allocator@U_Grp_t@?$_Tgt_state_t@V?$_String_const_iterator@V?$_String_val@U?$_Simple_types@D@std@@@std@@@std@@@std@@@3@@std@@CAXXZ
	?_Xlength@?$vector@U_Loop_vals_t@std@@V?$allocator@U_Loop_vals_t@std@@@2@@std@@CAXXZ
	?_Xlength@?$vector@V?$basic_string@DU?$char_traits@D@std@@V?$allocator@D@2@@std@@V?$allocator@V?$basic_string@DU?$char_traits@D@std@@V?$allocator@D@2@@std@@@2@@std@@CAXXZ
	?_Xlength@?$vector@V?$complex@N@std@@V?$allocator@V?$complex@N@std@@@2@@std@@CAXXZ
	?_Xlength@?$vector@V?$sub_match@PEBD@std@@V?$allocator@V?$sub_match@PEBD@std@@@2@@std@@CAXXZ
	?_Xlength@?$vector@V?$sub_match@V?$_String_const_iterator@V?$_String_val@U?$_Simple_types@D@std@@@std@@@std@@@std@@V?$allocator@V?$sub_match@V?$_String_const_iterator@V?$_String_val@U?$_Simple_types@D@std@@@std@@@std@@@std@@@2@@std@@CAXXZ
	?_Xlength@?$vector@V?$tuple@UPauliStr@@V?$complex@N@std@@@std@@V?$allocator@V?$tuple@UPauliStr@@V?$complex@N@std@@@std@@@2@@std@@CAXXZ
	?_Xlength@?$vector@V?$tuple@V?$basic_string@DU?$char_traits@D@std@@V?$allocator@D@2@@std@@V12@@std@@V?$allocator@V?$tuple@V?$basic_string@DU?$char_traits@D@std@@V?$allocator@D@2@@std@@V12@@std@@@2@@std@@CAXXZ
	?_Xlength@?$vector@V?$tuple@V?$basic_string@DU?$char_traits@D@std@@V?$allocator@D@2@@std@@_J@std@@V?$allocator@V?$tuple@V?$basic_string@DU?$char_traits@D@std@@V?$allocator@D@2@@std@@_J@std@@@2@@std@@CAXXZ
	?_Xlength@?$vector@V?$vector@HV?$allocator@H@std@@@std@@V?$allocator@V?$vector@HV?$allocator@H@std@@@std@@@2@@std@@CAXXZ
	?_Xlength@?$vector@V?$vector@P6AXUQureg@@V?$vector@HV?$allocator@H@std@@@std@@1111V?$complex@N@3@2@ZV?$allocator@P6AXUQureg@@V?$vector@HV?$allocator@H@std@@@std@@1111V?$complex@N@3@2@Z@3@@std@@V?$allocator@V?$vector@P6AXUQureg@@V?$vector@HV?$allocator@H@std@@@std@@1111V?$complex@N@3@2@ZV?$allocator@P6AXUQureg@@V?$vector@HV?$allocator@H@std@@@std@@1111V?$complex@N@3@2@Z@3@@std@@@2@@std@@CAXXZ
	?_Xlength@?$vector@V?$vector@P6AXUQureg@@V?$vector@HV?$allocator@H@std@@@std@@11UCompMatr@@@ZV?$allocator@P6AXUQureg@@V?$vector@HV?$allocator@H@std@@@std@@11UCompMatr@@@Z@3@@std@@V?$allocator@V?$vector@P6AXUQureg@@V?$vector@HV?$allocator@H@std@@@std@@11UCompMatr@@@ZV?$allocator@P6AXUQureg@@V?$vector@HV?$allocator@H@std@@@std@@11UCompMatr@@@Z@3@@std@@@2@@std@@CAXXZ
	?_Xlength@?$vector@V?$vector@P6AXUQureg@@V?$vector@HV?$allocator@H@std@@@std@@11UDiagMatr@@V?$complex@N@3@@ZV?$allocator@P6AXUQureg@@V?$vector@HV?$allocator@H@std@@@std@@11UDiagMatr@@V?$complex@N@3@@Z@3@@std@@V?$allocator@V?$vector@P6AXUQureg@@V?$vector@HV?$allocator@H@std@@@std@@11UDiagMatr@@V?$complex@N@3@@ZV?$allocator@P6AXUQureg@@V?$vector@HV?$allocator@H@std@@@std@@11UDiagMatr@@V?$complex@N@3@@Z@3@@std@@@2@@std@@CAXXZ
	?_Xlength@?$vector@V?$vector@V?$basic_string@DU?$char_traits@D@std@@V?$allocator@D@2@@std@@V?$allocator@V?$basic_string@DU?$char_traits@D@std@@V?$allocator@D@2@@std@@@2@@std@@V?$allocator@V?$vector@V?$basic_string@DU?$char_traits@D@std@@V?$allocator@D@2@@std@@V?$allocator@V?$basic_string@DU?$char_traits@D@std@@V?$allocator@D@2@@std@@@2@@std@@@2@@std@@CAXXZ
	?_Xlength@?$vector@V?$vector@V?$complex@N@std@@V?$allocator@V?$complex@N@std@@@2@@std@@V?$allocator@V?$vector@V?$complex@N@std@@V?$allocator@V?$complex@N@std@@@2@@std@@@2@@std@@CAXXZ
	?_Xlength@?$vector@V?$vector@V?$vector@V?$complex@N@std@@V?$allocator@V?$complex@N@std@@@2@@std@@V?$allocator@V?$vector@V?$complex@N@std@@V?$allocator@V?$complex@N@std@@@2@@std@@@2@@std@@V?$allocator@V?$vector@V?$vector@V?$complex@N@std@@V?$allocator@V?$complex@N@std@@@2@@std@@V?$allocator@V?$vector@V?$complex@N@std@@V?$allocator@V?$complex@N@std@@@2@@std@@@2@@std@@@2@@std@@CAXXZ
	?_Xlength@?$vector@_JV?$allocator@_J@std@@@std@@CAXXZ
	?_Xlength@?$vector@_KV?$allocator@_K@std@@@std@@CAXXZ
	?_Xran@?$_String_val@U?$_Simple_types@D@std@@@std@@SAXXZ
	?accel_densmatr_allTargDiagMatr_subA@@YAXUQureg@@UFullStateDiagMatr@@V?$complex@N@std@@_N@Z
	?accel_densmatr_allTargDiagMatr_subB@@YAXUQureg@@UFullStateDiagMatr@@V?$complex@N@std@@_N@Z
	?accel_densmatr_calcExpecAnyTargZ_sub@@YA?AV?$complex@N@std@@UQureg@@V?$vector@HV?$allocator@H@std@@@2@@Z
	?accel_densmatr_calcExpecFullStateDiagMatr_sub@@YA?AV?$complex@N@std@@UQureg@@UFullStateDiagMatr@@V12@_N@Z
	?accel_densmatr_calcExpecPauliStr_sub@@YA?AV?$complex@N@std@@UQureg@@V?$vector@HV?$allocator@H@std@@@2@11@Z
	?accel_densmatr_calcFidelityWithPureState_sub@@YA?AV?$complex@N@std@@UQureg@@0_N@Z
	?accel_densmatr_calcHilbertSchmidtDistance_sub@@YANUQureg@@0@Z
	?accel_densmatr_calcProbOfMultiQubitOutcome_sub@@YANUQureg@@V?$vector@HV?$allocator@H@std@@@std@@1@Z
	?accel_densmatr_calcProbsOfAllMultiQubitOutcomes_sub@@YAXPEANUQureg@@V?$vector@HV?$allocator@H@std@@@std@@@Z
	?accel_densmatr_calcTotalProb_sub@@YANUQureg@@@Z
	?accel_densmatr_mixQureg_subA@@YAXNUQureg@@N0@Z
	?accel_densmatr_mixQureg_subB@@YAXNUQureg@@N0@Z
	?accel_densmatr_mixQureg_subC@@YAXNUQureg@@N@Z
	?accel_densmatr_mixQureg_subD@@YAXNUQureg@@N0@Z
	?accel_densmatr_multiQubitProjector_sub@@YAXUQureg@@V?$vector@HV?$allocator@H@std@@@std@@1N@Z
	?accel_densmatr_oneQubitDamping_subA@@YAXUQureg@@HN@Z
	?accel_densmatr_oneQubitDamping_subB@@YAXUQureg@@HN@Z
	?accel_densmatr_oneQubitDamping_subC@@YAXUQureg@@HN@Z
	?accel_densmatr_oneQubitDamping_subD@@YAXUQureg@@HN@Z
	?accel_densmatr_oneQubitDephasing_subA@@YAXUQureg@@HN@Z
	?accel_densmatr_oneQubitDephasing_subB@@YAXUQureg@@HN@Z
	?accel_densmatr_oneQubitDepolarising_subA@@YAXUQureg@@HN@Z
	?accel_densmatr_oneQubitDepolarising_subB@@YAXUQureg@@HN@Z
	?accel_densmatr_oneQubitPauliChannel_subA@@YAXUQureg@@HNNNN@Z
	?accel_densmatr_oneQubitPauliChannel_subB@@YAXUQureg@@HNNNN@Z
	?accel_densmatr_partialTrace_sub@@YAXUQureg@@0V?$vector@HV?$allocator@H@std@@@std@@1@Z
	?accel_densmatr_setAmpsToPauliStrSum_sub@@YAXUQureg@@UPauliStrSum@@@Z
	?accel_densmatr_twoQubitDephasing_subA@@YAXUQureg@@HHN@Z
	?accel_densmatr_twoQubitDephasing_subB@@YAXUQureg@@HHN@Z
	?accel_densmatr_twoQubitDepolarising_subA@@YAXUQureg@@HHN@Z
	?accel_densmatr_twoQubitDepolarising_subB@@YAXUQureg@@HHN@Z
	?accel_densmatr_twoQubitDepolarising_subC@@YAXUQureg@@HHN@Z
	?accel_densmatr_twoQubitDepolarising_subD@@YAXUQureg@@HHN@Z
	?accel_densmatr_twoQubitDepolarising_subE@@YAXUQureg@@HHN@Z
	?accel_densmatr_twoQubitDepolarising_subF@@YAXUQureg@@HHN@Z
	?accel_fullstatediagmatr_setElemsToPauliStrSum@@YAXUFullStateDiagMatr@@UPauliStrSum@@@Z
	?accel_statevec_allTargDiagMatr_sub@@YAXUQureg@@UFullStateDiagMatr@@V?$complex@N@std@@@Z
	?accel_statevec_anyCtrlAnyTargDenseMatr_sub@@YAXUQureg@@V?$vector@HV?$allocator@H@std@@@std@@11UCompMatr@@_N@Z
	?accel_statevec_anyCtrlAnyTargDiagMatr_sub@@YAXUQureg@@V?$vector@HV?$allocator@H@std@@@std@@11UDiagMatr@@V?$complex@N@3@_N@Z
	?accel_statevec_anyCtrlOneTargDenseMatr_subA@@YAXUQureg@@V?$vector@HV?$allocator@H@std@@@std@@1HUCompMatr1@@@Z
	?accel_statevec_anyCtrlOneTargDenseMatr_subB@@YAXUQureg@@V?$vector@HV?$allocator@H@std@@@std@@1V?$complex@N@3@2@Z
	?accel_statevec_anyCtrlOneTargDiagMatr_sub@@YAXUQureg@@V?$vector@HV?$allocator@H@std@@@std@@1HUDiagMatr1@@@Z
	?accel_statevec_anyCtrlSwap_subA@@YAXUQureg@@V?$vector@HV?$allocator@H@std@@@std@@1HH@Z
	?accel_statevec_anyCtrlSwap_subB@@YAXUQureg@@V?$vector@HV?$allocator@H@std@@@std@@1@Z
	?accel_statevec_anyCtrlSwap_subC@@YAXUQureg@@V?$vector@HV?$allocator@H@std@@@std@@1HH@Z
	?accel_statevec_anyCtrlTwoTargDenseMatr_sub@@YAXUQureg@@V?$vector@HV?$allocator@H@std@@@std@@1HHUCompMatr2@@@Z
	?accel_statevec_anyCtrlTwoTargDiagMatr_sub@@YAXUQureg@@V?$vector@HV?$allocator@H@std@@@std@@1HHUDiagMatr2@@@Z
	?accel_statevec_calcExpecAnyTargZ_sub@@YANUQureg@@V?$vector@HV?$allocator@H@std@@@std@@@Z
	?accel_statevec_calcExpecFullStateDiagMatr_sub@@YA?AV?$complex@N@std@@UQureg@@UFullStateDiagMatr@@V12@_N@Z
	?accel_statevec_calcExpecPauliStr_subA@@YA?AV?$complex@N@std@@UQureg@@V?$vector@HV?$allocator@H@std@@@2@11@Z
	?accel_statevec_calcExpecPauliStr_subB@@YA?AV?$complex@N@std@@UQureg@@V?$vector@HV?$allocator@H@std@@@2@11@Z
	?accel_statevec_calcInnerProduct_sub@@YA?AV?$complex@N@std@@UQureg@@0@Z
	?accel_statevec_calcProbOfMultiQubitOutcome_sub@@YANUQureg@@V?$vector@HV?$allocator@H@std@@@std@@1@Z
	?accel_statevec_calcProbsOfAllMultiQubitOutcomes_sub@@YAXPEANUQureg@@V?$vector@HV?$allocator@H@std@@@std@@@Z
	?accel_statevec_calcTotalProb_sub@@YANUQureg@@@Z
	?accel_statevec_getAmp_sub@@YA?AV?$complex@N@std@@UQureg@@_J@Z
	?accel_statevec_getAmps_sub@@YAXPEAV?$complex@N@std@@UQureg@@_J2@Z
	?accel_statevec_initDebugState_sub@@YAXUQureg@@@Z
	?accel_statevec_initUniformState_sub@@YAXUQureg@@V?$complex@N@std@@@Z
	?accel_statevec_initUnnormalisedUniformlyRandomPureStateAmps_sub@@YAXUQureg@@@Z
	?accel_statevec_multiQubitProjector_sub@@YAXUQureg@@V?$vector@HV?$allocator@H@std@@@std@@1N@Z
	?accel_statevec_packAmpsIntoBuffer@@YA_JUQureg@@V?$vector@HV?$allocator@H@std@@@std@@1@Z
	?accel_statevec_packPairSummedAmpsIntoBuffer@@YA_JUQureg@@HHHH@Z
	?accel_statevec_setAmps_sub@@YAXPEAV?$complex@N@std@@UQureg@@_J2@Z
	?accel_statevec_setQuregToSuperposition_sub@@YAXV?$complex@N@std@@UQureg@@0101@Z
	?accel_statevector_anyCtrlAnyTargZOrPhaseGadget_sub@@YAXUQureg@@V?$vector@HV?$allocator@H@std@@@std@@11V?$complex@N@3@2@Z
	?accel_statevector_anyCtrlPauliTensorOrGadget_subA@@YAXUQureg@@V?$vector@HV?$allocator@H@std@@@std@@1111V?$complex@N@3@2@Z
	?accel_statevector_anyCtrlPauliTensorOrGadget_subB@@YAXUQureg@@V?$vector@HV?$allocator@H@std@@@std@@1111V?$complex@N@3@2_J@Z
	?alignUpperQubitsAndGenerateInterim@PermutationTracker@@QEAA?AV?$tuple@V?$vector@U?$pair@HH@std@@V?$allocator@U?$pair@HH@std@@@2@@std@@V12@V?$vector@HV?$allocator@H@std@@@2@@std@@AEBV?$vector@HV?$allocator@H@std@@@3@0@Z
	?allocSuperOp@@YA?AUSuperOp@@H@Z
	?allocateMatrixQuadrants@@YAXUMatrixQuadrantInds@@AEAV?$vector@V?$vector@V?$complex@N@std@@V?$allocator@V?$complex@N@std@@@2@@std@@V?$allocator@V?$vector@V?$complex@N@std@@V?$allocator@V?$complex@N@std@@@2@@std@@@2@@std@@111@Z
	?anyCtrlMultiSwapBetweenPrefixAndSuffix@@YAXUQureg@@V?$vector@HV?$allocator@H@std@@@std@@111@Z
	?anyCtrlOneTargDenseMatrOnPrefix@@YAXUQureg@@V?$vector@HV?$allocator@H@std@@@std@@1HUCompMatr1@@@Z
	?anyCtrlPauliTensorOrGadget@@YAXUQureg@@V?$vector@HV?$allocator@H@std@@@std@@1UPauliStr@@V?$complex@N@3@3@Z
	?anyCtrlSwapBetweenPrefixAndPrefix@@YAXUQureg@@V?$vector@HV?$allocator@H@std@@@std@@1HH@Z
	?anyCtrlSwapBetweenPrefixAndSuffix@@YAXUQureg@@V?$vector@HV?$allocator@H@std@@@std@@1HH@Z
	?anyCtrlTwoOrAnyTargDenseMatrOnSuffix@@YAXUQureg@@V?$vector@HV?$allocator@H@std@@@std@@11UCompMatr2@@_N@Z
	?anyCtrlTwoOrAnyTargDenseMatrOnSuffix@@YAXUQureg@@V?$vector@HV?$allocator@H@std@@@std@@11UCompMatr@@_N@Z
	?anyCtrlZTensorOrGadget@@YAXUQureg@@V?$vector@HV?$allocator@H@std@@@std@@11_NN@Z
	?append@?$basic_string@DU?$char_traits@D@std@@V?$allocator@D@2@@std@@QEAAAEAV12@QEBD_K@Z
	?append@?$basic_string@DU?$char_traits@D@std@@V?$allocator@D@2@@std@@QEAAAEAV12@_KD@Z
	?append@?$basic_string@_WU?$char_traits@_W@std@@V?$allocator@_W@2@@std@@QEAAAEAV12@QEB_W_K@Z
	?applyCompMatr@@YAXUQureg@@V?$vector@HV?$allocator@H@std@@@std@@UCompMatr@@@Z
	?applyControlledCompMatr@@YAXUQureg@@HV?$vector@HV?$allocator@H@std@@@std@@UCompMatr@@@Z
	?applyControlledDiagMatr@@YAXUQureg@@HV?$vector@HV?$allocator@H@std@@@std@@UDiagMatr@@@Z
	?applyControlledDiagMatrPower@@YAXUQureg@@HV?$vector@HV?$allocator@H@std@@@std@@UDiagMatr@@V?$complex@N@3@@Z
	?applyControlledMultiQubitNot@@YAXUQureg@@HV?$vector@HV?$allocator@H@std@@@std@@@Z
	?applyControlledPhaseGadget@@YAXUQureg@@HV?$vector@HV?$allocator@H@std@@@std@@N@Z
	?applyDiagMatr@@YAXUQureg@@V?$vector@HV?$allocator@H@std@@@std@@UDiagMatr@@@Z
	?applyDiagMatrPower@@YAXUQureg@@V?$vector@HV?$allocator@H@std@@@std@@UDiagMatr@@V?$complex@N@3@@Z
	?applyForcedMultiQubitMeasurement@@YANUQureg@@V?$vector@HV?$allocator@H@std@@@std@@1@Z
	?applyGateOpToQureg@GateScheduler@@SAXAEBUGateOp@@AEAUQureg@@@Z
	?applyMultiControlledCompMatr1@@YAXUQureg@@V?$vector@HV?$allocator@H@std@@@std@@HUCompMatr1@@@Z
	?applyMultiControlledCompMatr2@@YAXUQureg@@V?$vector@HV?$allocator@H@std@@@std@@HHUCompMatr2@@@Z
	?applyMultiControlledCompMatr@@YAXUQureg@@V?$vector@HV?$allocator@H@std@@@std@@1UCompMatr@@@Z
	?applyMultiControlledDiagMatr1@@YAXUQureg@@V?$vector@HV?$allocator@H@std@@@std@@HUDiagMatr1@@@Z
	?applyMultiControlledDiagMatr2@@YAXUQureg@@V?$vector@HV?$allocator@H@std@@@std@@HHUDiagMatr2@@@Z
	?applyMultiControlledDiagMatr@@YAXUQureg@@V?$vector@HV?$allocator@H@std@@@std@@1UDiagMatr@@@Z
	?applyMultiControlledDiagMatrPower@@YAXUQureg@@V?$vector@HV?$allocator@H@std@@@std@@1UDiagMatr@@V?$complex@N@3@@Z
	?applyMultiControlledHadamard@@YAXUQureg@@V?$vector@HV?$allocator@H@std@@@std@@H@Z
	?applyMultiControlledMultiQubitNot@@YAXUQureg@@V?$vector@HV?$allocator@H@std@@@std@@1@Z
	?applyMultiControlledPauliGadget@@YAXUQureg@@V?$vector@HV?$allocator@H@std@@@std@@UPauliStr@@N@Z
	?applyMultiControlledPauliStr@@YAXUQureg@@V?$vector@HV?$allocator@H@std@@@std@@UPauliStr@@@Z
	?applyMultiControlledPauliX@@YAXUQureg@@V?$vector@HV?$allocator@H@std@@@std@@H@Z
	?applyMultiControlledPauliY@@YAXUQureg@@V?$vector@HV?$allocator@H@std@@@std@@H@Z
	?applyMultiControlledPauliZ@@YAXUQureg@@V?$vector@HV?$allocator@H@std@@@std@@H@Z
	?applyMultiControlledPhaseGadget@@YAXUQureg@@V?$vector@HV?$allocator@H@std@@@std@@1N@Z
	?applyMultiControlledRotateAroundAxis@@YAXUQureg@@V?$vector@HV?$allocator@H@std@@@std@@HNNNN@Z
	?applyMultiControlledRotateX@@YAXUQureg@@V?$vector@HV?$allocator@H@std@@@std@@HN@Z
	?applyMultiControlledRotateY@@YAXUQureg@@V?$vector@HV?$allocator@H@std@@@std@@HN@Z
	?applyMultiControlledRotateZ@@YAXUQureg@@V?$vector@HV?$allocator@H@std@@@std@@HN@Z
	?applyMultiControlledS@@YAXUQureg@@V?$vector@HV?$allocator@H@std@@@std@@H@Z
	?applyMultiControlledSqrtSwap@@YAXUQureg@@V?$vector@HV?$allocator@H@std@@@std@@HH@Z
	?applyMultiControlledSwap@@YAXUQureg@@V?$vector@HV?$allocator@H@std@@@std@@HH@Z
	?applyMultiControlledT@@YAXUQureg@@V?$vector@HV?$allocator@H@std@@@std@@H@Z
	?applyMultiQubitMeasurementAndGetProb@@YA_JUQureg@@V?$vector@HV?$allocator@H@std@@@std@@PEAN@Z
	?applyMultiQubitNot@@YAXUQureg@@V?$vector@HV?$allocator@H@std@@@std@@@Z
	?applyMultiQubitPhaseFlip@@YAXUQureg@@V?$vector@HV?$allocator@H@std@@@std@@@Z
	?applyMultiQubitPhaseShift@@YAXUQureg@@V?$vector@HV?$allocator@H@std@@@std@@N@Z
	?applyMultiQubitProjector@@YAXUQureg@@V?$vector@HV?$allocator@H@std@@@std@@1@Z
	?applyMultiStateControlledCompMatr1@@YAXUQureg@@V?$vector@HV?$allocator@H@std@@@std@@1HUCompMatr1@@@Z
	?applyMultiStateControlledCompMatr2@@YAXUQureg@@V?$vector@HV?$allocator@H@std@@@std@@1HHHUCompMatr2@@@Z
	?applyMultiStateControlledCompMatr@@YAXUQureg@@V?$vector@HV?$allocator@H@std@@@std@@11UCompMatr@@@Z
	?applyMultiStateControlledDiagMatr1@@YAXUQureg@@V?$vector@HV?$allocator@H@std@@@std@@1HUDiagMatr1@@@Z
	?applyMultiStateControlledDiagMatr2@@YAXUQureg@@V?$vector@HV?$allocator@H@std@@@std@@1HHUDiagMatr2@@@Z
	?applyMultiStateControlledDiagMatr@@YAXUQureg@@V?$vector@HV?$allocator@H@std@@@std@@11UDiagMatr@@@Z
	?applyMultiStateControlledDiagMatrPower@@YAXUQureg@@V?$vector@HV?$allocator@H@std@@@std@@11UDiagMatr@@V?$complex@N@3@@Z
	?applyMultiStateControlledHadamard@@YAXUQureg@@V?$vector@HV?$allocator@H@std@@@std@@1H@Z
	?applyMultiStateControlledMultiQubitNot@@YAXUQureg@@V?$vector@HV?$allocator@H@std@@@std@@11@Z
	?applyMultiStateControlledPauliGadget@@YAXUQureg@@V?$vector@HV?$allocator@H@std@@@std@@1UPauliStr@@N@Z
	?applyMultiStateControlledPauliStr@@YAXUQureg@@V?$vector@HV?$allocator@H@std@@@std@@1UPauliStr@@@Z
	?applyMultiStateControlledPauliX@@YAXUQureg@@V?$vector@HV?$allocator@H@std@@@std@@1H@Z
	?applyMultiStateControlledPauliY@@YAXUQureg@@V?$vector@HV?$allocator@H@std@@@std@@1H@Z
	?applyMultiStateControlledPauliZ@@YAXUQureg@@V?$vector@HV?$allocator@H@std@@@std@@1H@Z
	?applyMultiStateControlledPhaseGadget@@YAXUQureg@@V?$vector@HV?$allocator@H@std@@@std@@11N@Z
	?applyMultiStateControlledRotateAroundAxis@@YAXUQureg@@V?$vector@HV?$allocator@H@std@@@std@@1HNNNN@Z
	?applyMultiStateControlledRotateX@@YAXUQureg@@V?$vector@HV?$allocator@H@std@@@std@@1HN@Z
	?applyMultiStateControlledRotateY@@YAXUQureg@@V?$vector@HV?$allocator@H@std@@@std@@1HN@Z
	?applyMultiStateControlledRotateZ@@YAXUQureg@@V?$vector@HV?$allocator@H@std@@@std@@1HN@Z
	?applyMultiStateControlledS@@YAXUQureg@@V?$vector@HV?$allocator@H@std@@@std@@1H@Z
	?applyMultiStateControlledSqrtSwap@@YAXUQureg@@V?$vector@HV?$allocator@H@std@@@std@@1HH@Z
	?applyMultiStateControlledSwap@@YAXUQureg@@V?$vector@HV?$allocator@H@std@@@std@@1HH@Z
	?applyMultiStateControlledT@@YAXUQureg@@V?$vector@HV?$allocator@H@std@@@std@@1H@Z
	?applyPhaseGadget@@YAXUQureg@@V?$vector@HV?$allocator@H@std@@@std@@N@Z
	?applyQuantumFourierTransform@@YAXUQureg@@V?$vector@HV?$allocator@H@std@@@std@@@Z
	?applySubCircuitToBlock@@YAXAEBUSubCircuit@@AEAV?$vector@V?$complex@N@std@@V?$allocator@V?$complex@N@std@@@2@@std@@H@Z
	?applySubCircuitToBlockDebug@@YAXAEBUSubCircuit@@AEAV?$vector@V?$complex@N@std@@V?$allocator@V?$complex@N@std@@@2@@std@@H@Z
	?applySwaps@@YA?AV?$vector@HV?$allocator@H@std@@@std@@AEBV12@AEBV?$vector@U?$pair@HH@std@@V?$allocator@U?$pair@HH@std@@@2@@2@@Z
	?areQubitsDisjoint@@YA_NPEAHH0H@Z
	?areQubitsUnique@@YA_NPEAHH@Z
	?areaSwapShuffle@PermutationTracker@@QEAA?AV?$vector@HV?$allocator@H@std@@@std@@AEBV23@HH@Z
	?assertAllNodesAgreeThat@@YAX_NV?$basic_string@DU?$char_traits@D@std@@V?$allocator@D@2@@std@@PEBD@Z
	?assertAllNodesAgreeThat@@YAX_NV?$basic_string@DU?$char_traits@D@std@@V?$allocator@D@2@@std@@V?$map@V?$basic_string@DU?$char_traits@D@std@@V?$allocator@D@2@@std@@_JU?$less@V?$basic_string@DU?$char_traits@D@std@@V?$allocator@D@2@@std@@@2@V?$allocator@U?$pair@$$CBV?$basic_string@DU?$char_traits@D@std@@V?$allocator@D@2@@std@@_J@std@@@2@@2@PEBD@Z
	?assertCorrectNumPauliCharsBeforeTerminationChar@@YAXPEBDH0@Z
	?assertKrausMapNonEmpty@@YAXHPEBD@Z
	?assertKrausMapValidNumMatrices@@YAXHHPEBD@Z
	?assertMatrixDeployFlagsRecognised@@YAXHHHPEBD@Z
	?assertMatrixDeploysEnabledByEnv@@YAXHHHUQuESTEnv@@PEBD@Z
	?assertMatrixFitsInCpuMem@@YAXH_NHHPEBD@Z
	?assertMatrixFitsInGpuMem@@YAXH_NHHHPEBD@Z
	?assertMatrixLocalMemDoesntExceedMaxSizeof@@YAXH_NHHPEBD@Z
	?assertMatrixNonEmpty@@YAXHPEBD@Z
	?assertMatrixNotDistributedOverTooManyNodes@@YAXH_NHHPEBD@Z
	?assertMatrixTotalNumElemsDontExceedMaxIndex@@YAXH_NPEBD@Z
	?assertNewMatrixParamsAreValid@@YAXHHHH_NPEBD@Z
	?assertNewSuperOpAllocs@@YAXUSuperOp@@_NPEBD@Z
	?assertQuregDeployFlagsRecognised@@YAXHHHHPEBD@Z
	?assertQuregDeploysEnabledByEnv@@YAXHHHUQuESTEnv@@PEBD@Z
	?assertQuregFitsInCpuMem@@YAXHHHUQuESTEnv@@PEBD@Z
	?assertQuregFitsInGpuMem@@YAXHHHHUQuESTEnv@@PEBD@Z
	?assertQuregLocalMemDoesntExceedMaxSizeof@@YAXHHHUQuESTEnv@@PEBD@Z
	?assertQuregNonEmpty@@YAXHPEBD@Z
	?assertQuregNotDistributedOverTooManyNodes@@YAXHHHUQuESTEnv@@PEBD@Z
	?assertQuregTotalNumAmpsDontExceedMaxIndex@@YAXHHPEBD@Z
	?assertRecognisedNewPaulis@@YAXPEBDH0@Z
	?assertStringIsValidPauliStrSum@@YAXV?$basic_string@DU?$char_traits@D@std@@V?$allocator@D@2@@std@@PEBD@Z
	?assertSuperOpFieldsAreValid@@YAXUSuperOp@@_NPEBD@Z
	?assertSuperOpFitsInCpuMem@@YAXH_NPEBD@Z
	?assertSuperOpFitsInGpuMem@@YAXHH_NPEBD@Z
	?assertSuperOpLocalMemDoesntExceedMaxSizeof@@YAXH_NPEBD@Z
	?assertSuperOpNonEmpty@@YAXHPEBD@Z
	?assertSuperOpTotalNumElemsDontExceedMaxIndex@@YAXH_NPEBD@Z
	?assertThat@@YAX_NV?$basic_string@DU?$char_traits@D@std@@V?$allocator@D@2@@std@@PEBD@Z
	?assertThat@@YAX_NV?$basic_string@DU?$char_traits@D@std@@V?$allocator@D@2@@std@@V?$map@V?$basic_string@DU?$char_traits@D@std@@V?$allocator@D@2@@std@@_JU?$less@V?$basic_string@DU?$char_traits@D@std@@V?$allocator@D@2@@std@@@2@V?$allocator@U?$pair@$$CBV?$basic_string@DU?$char_traits@D@std@@V?$allocator@D@2@@std@@_J@std@@@2@@2@PEBD@Z
	?assertValidCtrlStates@@YAXV?$vector@HV?$allocator@H@std@@@std@@0@Z
	?assertValidNewPauliCodes@@YAXPEAHHPEBD@Z
	?assertValidNewPauliIndices@@YAXPEAHHHPEBD@Z
	?assertValidQubit@@YAXUQureg@@HV?$basic_string@DU?$char_traits@D@std@@V?$allocator@D@2@@std@@PEBD@Z
	?assertValidQubits@@YAXUQureg@@PEAHH_NPEBDV?$basic_string@DU?$char_traits@D@std@@V?$allocator@D@2@@std@@4444@Z
	?assert_acceleratorQuregIsDistributed@@YAXUQureg@@@Z
	?assert_applyFullStateDiagMatrTempGpuAllocSucceeded@@YAXPEAV?$complex@N@std@@@Z
	?assert_bufferPackerGivenIncreasingQubits@@YAXHHH@Z
	?assert_bufferSendRecvDoesNotOverlap@@YAX_J00@Z
	?assert_calcExpecDiagTempGpuAllocSucceeded@@YAXPEAV?$complex@N@std@@@Z
	?assert_calcFidStateVecIsLocal@@YAXUQureg@@@Z
	?assert_calcFidTempGpuAllocSucceeded@@YAXPEAV?$complex@N@std@@@Z
	?assert_commBoundsAreValid@@YAXUQureg@@_J11@Z
	?assert_commFullStateDiagMatrIsDistributed@@YAXUFullStateDiagMatr@@@Z
	?assert_commPayloadIsPowerOf2@@YAX_J@Z
	?assert_commQuregIsDistributed@@YAXUQureg@@@Z
	?assert_exponentMatchesTemplateParam@@YAXV?$complex@N@std@@_N1@Z
	?assert_exponentMatchesTemplateParam@@YAXV?$complex@N@std@@_N@Z
	?assert_fullStateDiagMatrIsDistributed@@YAXUFullStateDiagMatr@@@Z
	?assert_fullStateDiagMatrIsLocal@@YAXUFullStateDiagMatr@@@Z
	?assert_gpuHasBeenBound@@YAX_N@Z
	?assert_gpuIsAccessible@@YAXXZ
	?assert_highPauliStrSumMaskIsZero@@YAXUPauliStrSum@@@Z
	?assert_innerProductedSameDimQuregsHaveSameGpuAccel@@YAXUQureg@@0@Z
	?assert_localiserDistribQuregSpooferGivenValidQuregs@@YAXUQureg@@0@Z
	?assert_localiserGivenDensMatr@@YAXUQureg@@@Z
	?assert_localiserGivenStateVec@@YAXUQureg@@@Z
	?assert_localiserPartialTraceGivenCompatibleQuregs@@YAXUQureg@@0H@Z
	?assert_localiserSuccessfullyAllocatedTempMemory@@YAXPEAV?$complex@N@std@@_N@Z
	?assert_mixQuregTempGpuAllocSucceeded@@YAXPEAV?$complex@N@std@@@Z
	?assert_mixedQuregIsDensityMatrix@@YAXUQureg@@@Z
	?assert_mixedQuregIsDistributed@@YAXUQureg@@@Z
	?assert_mixedQuregIsLocal@@YAXUQureg@@@Z
	?assert_mixedQuregIsStatevector@@YAXUQureg@@@Z
	?assert_mixedQuregsAreBothOrNeitherDistributed@@YAXUQureg@@0@Z
	?assert_numCtrlsMatchesNumCtrlStatesAndTemplateParam@@YAXHHH@Z
	?assert_numQubitsMatchesQubitStatesAndTemplateParam@@YAXHHHV?$basic_string@DU?$char_traits@D@std@@V?$allocator@D@2@@std@@@Z
	?assert_numTargsMatchesTemplateParam@@YAXHH@Z
	?assert_pairRankIsDistinct@@YAXUQureg@@H@Z
	?assert_partialTraceQuregsAreIdenticallyDeployed@@YAXUQureg@@0@Z
	?assert_printerGivenNonNegativeNumNewlines@@YAXXZ
	?assert_printerGivenPositiveNumNewlines@@YAXXZ
	?assert_quregAndFullStateDiagMatrAreBothOrNeitherDistrib@@YAXUQureg@@UFullStateDiagMatr@@@Z
	?assert_quregAndFullStateDiagMatrHaveSameDistrib@@YAXUQureg@@UFullStateDiagMatr@@@Z
	?assert_quregDistribAndFullStateDiagMatrLocal@@YAXUQureg@@UFullStateDiagMatr@@@Z
	?assert_quregGpuBufferIsNotGraftedToMatrix@@YAXUQureg@@UFullStateDiagMatr@@@Z
	?assert_quregIsGpuAccelerated@@YAXUQureg@@@Z
	?assert_receiverCanFitSendersEntireElems@@YAXUQureg@@UFullStateDiagMatr@@@Z
	?assert_receiverCanFitSendersEntireState@@YAXUQureg@@0@Z
	?assert_superposedQuregDimsAndDeploysMatch@@YAXUQureg@@00@Z
	?assert_utilsGivenDensMatr@@YAXUQureg@@@Z
	?assert_utilsGivenNonZeroEpsilon@@YAXN@Z
	?assert_utilsGivenStateVec@@YAXUQureg@@@Z
	?assign@?$basic_string@DU?$char_traits@D@std@@V?$allocator@D@2@@std@@QEAAAEAV12@QEBD_K@Z
	?asynchSendArray@@YAXPEAV?$complex@N@std@@_JH@Z
	?asynchSendGpuSubBuffer@@YAXUQureg@@_JH@Z
	?autodep_chooseFullStateDiagMatrDeployment@@YAXHAEAH00UQuESTEnv@@@Z
	?autodep_chooseQuESTEnvDeployment@@YAXAEAH00@Z
	?autodep_chooseQuregDeployment@@YAXHHAEAH00UQuESTEnv@@@Z
	?calcExpecNonHermitianFullStateDiagMatr@@YA?AV?$complex@N@std@@UQureg@@UFullStateDiagMatr@@@Z
	?calcExpecNonHermitianFullStateDiagMatrPower@@YA?AV?$complex@N@std@@UQureg@@UFullStateDiagMatr@@V12@@Z
	?calcExpecNonHermitianPauliStrSum@@YA?AV?$complex@N@std@@UQureg@@UPauliStrSum@@@Z
	?calcInnerProdOfSameDistribQuregs@@YA?AV?$complex@N@std@@UQureg@@0@Z
	?calcInnerProduct@@YA?AV?$complex@N@std@@UQureg@@0@Z
	?calcPartialTrace@@YA?AUQureg@@U1@V?$vector@HV?$allocator@H@std@@@std@@@Z
	?calcProbOfMultiQubitOutcome@@YANUQureg@@V?$vector@HV?$allocator@H@std@@@std@@1@Z
	?calcProbsOfAllMultiQubitOutcomes@@YA?AV?$vector@NV?$allocator@N@std@@@std@@UQureg@@V?$vector@HV?$allocator@H@std@@@2@@Z
	?calcReducedDensityMatrix@@YA?AUQureg@@U1@V?$vector@HV?$allocator@H@std@@@std@@@Z
	?capt@patterns@@YA?AV?$basic_string@DU?$char_traits@D@std@@V?$allocator@D@2@@std@@V23@@Z
	?chooseWhetherToDistributeQureg@@YAXHHAEAHHH@Z
	?chooseWhetherToGpuAccelQureg@@YAXHHAEAHH@Z
	?chooseWhetherToMultithreadQureg@@YAXHHAEAHH@Z
	?comm_asynchSendSubBuffer@@YAXUQureg@@_JH@Z
	?comm_broadcastAmp@@YAXHPEAV?$complex@N@std@@@Z
	?comm_broadcastIntsFromRoot@@YAXPEAH_J@Z
	?comm_broadcastUnsignedsFromRoot@@YAXPEAI_J@Z
	?comm_combineAmpsIntoBuffer@@YAXUQureg@@0@Z
	?comm_combineElemsIntoBuffer@@YAXUQureg@@UFullStateDiagMatr@@@Z
	?comm_combineSubArrays@@YAXPEAV?$complex@N@std@@V?$vector@_JV?$allocator@_J@std@@@2@11@Z
	?comm_end@@YAXXZ
	?comm_exchangeAmpsToBuffers@@YAXUQureg@@H@Z
	?comm_exchangeAmpsToBuffers@@YAXUQureg@@_J11H@Z
	?comm_exchangeSubBuffers@@YAXUQureg@@_JH@Z
	?comm_gatherStringsToRoot@@YA?AV?$vector@V?$basic_string@DU?$char_traits@D@std@@V?$allocator@D@2@@std@@V?$allocator@V?$basic_string@DU?$char_traits@D@std@@V?$allocator@D@2@@std@@@2@@std@@PEADH@Z
	?comm_getNumNodes@@YAHXZ
	?comm_getRank@@YAHXZ
	?comm_init@@YAXXZ
	?comm_isInit@@YA_NXZ
	?comm_isMpiCompiled@@YA_NXZ
	?comm_isMpiGpuAware@@YA_NXZ
	?comm_isRootNode@@YA_NH@Z
	?comm_isRootNode@@YA_NXZ
	?comm_isTrueOnAllNodes@@YA_N_N@Z
	?comm_isTrueOnRootNode@@YA_N_N@Z
	?comm_receiveArrayToBuffer@@YAXUQureg@@_JH@Z
	?comm_reduceAmp@@YAXPEAV?$complex@N@std@@@Z
	?comm_reduceReal@@YAXPEAN@Z
	?comm_reduceReals@@YAXPEAN_J@Z
	?comm_sendAmpsToRoot@@YAXHPEAV?$complex@N@std@@0_J@Z
	?comm_sync@@YAXXZ
	?copyArrayIfGpuCompiled@@YAXPEAV?$complex@N@std@@0_JW4CopyDirection@@@Z
	?copyMatrixIfGpuCompiled@@YAXPEAPEAV?$complex@N@std@@PEAV12@_JW4CopyDirection@@@Z
	?cpu_allocAndInitMatrixWrapper@@YAPEAPEAV?$complex@N@std@@PEAV12@_J@Z
	?cpu_allocArray@@YAPEAV?$complex@N@std@@_J@Z
	?cpu_allocHeapFlag@@YAPEAHXZ
	?cpu_allocMatrix@@YAPEAPEAV?$complex@N@std@@_J@Z
	?cpu_allocMatrixList@@YAPEAPEAPEAV?$complex@N@std@@_JH@Z
	?cpu_allocPauliStrings@@YAPEAUPauliStr@@_J@Z
	?cpu_copyArray@@YAXPEAV?$complex@N@std@@0_J@Z
	?cpu_copyMatrix@@YAXPEAPEAV?$complex@N@std@@0_J@Z
	?cpu_copyMatrix@@YAXPEAPEAV?$complex@N@std@@V?$vector@V?$vector@V?$complex@N@std@@V?$allocator@V?$complex@N@std@@@2@@std@@V?$allocator@V?$vector@V?$complex@N@std@@V?$allocator@V?$complex@N@std@@@2@@std@@@2@@2@_J@Z
	?cpu_copyPauliStrSum@@YAXUPauliStrSum@@PEAUPauliStr@@PEAV?$complex@N@std@@@Z
	?cpu_deallocArray@@YAXPEAV?$complex@N@std@@@Z
	?cpu_deallocHeapFlag@@YAXPEAH@Z
	?cpu_deallocMatrix@@YAXPEAPEAV?$complex@N@std@@_J@Z
	?cpu_deallocMatrixList@@YAXPEAPEAPEAV?$complex@N@std@@_JH@Z
	?cpu_deallocMatrixWrapper@@YAXPEAPEAV?$complex@N@std@@@Z
	?cpu_deallocPauliStrings@@YAXPEAUPauliStr@@@Z
	?cpu_densmatr_calcExpecAnyTargZ_sub@@YA?AV?$complex@N@std@@UQureg@@V?$vector@HV?$allocator@H@std@@@2@@Z
	?cpu_densmatr_calcExpecPauliStr_sub@@YA?AV?$complex@N@std@@UQureg@@V?$vector@HV?$allocator@H@std@@@2@11@Z
	?cpu_densmatr_calcHilbertSchmidtDistance_sub@@YANUQureg@@0@Z
	?cpu_densmatr_calcTotalProb_sub@@YANUQureg@@@Z
	?cpu_densmatr_mixQureg_subA@@YAXNUQureg@@N0@Z
	?cpu_densmatr_mixQureg_subB@@YAXNUQureg@@N0@Z
	?cpu_densmatr_mixQureg_subC@@YAXNUQureg@@N@Z
	?cpu_densmatr_oneQubitDamping_subA@@YAXUQureg@@HN@Z
	?cpu_densmatr_oneQubitDamping_subB@@YAXUQureg@@HN@Z
	?cpu_densmatr_oneQubitDamping_subC@@YAXUQureg@@HN@Z
	?cpu_densmatr_oneQubitDamping_subD@@YAXUQureg@@HN@Z
	?cpu_densmatr_oneQubitDephasing_subA@@YAXUQureg@@HN@Z
	?cpu_densmatr_oneQubitDephasing_subB@@YAXUQureg@@HN@Z
	?cpu_densmatr_oneQubitDepolarising_subA@@YAXUQureg@@HN@Z
	?cpu_densmatr_oneQubitDepolarising_subB@@YAXUQureg@@HN@Z
	?cpu_densmatr_oneQubitPauliChannel_subA@@YAXUQureg@@HNNNN@Z
	?cpu_densmatr_oneQubitPauliChannel_subB@@YAXUQureg@@HNNNN@Z
	?cpu_densmatr_setAmpsToPauliStrSum_sub@@YAXUQureg@@UPauliStrSum@@@Z
	?cpu_densmatr_twoQubitDephasing_subA@@YAXUQureg@@HHN@Z
	?cpu_densmatr_twoQubitDephasing_subB@@YAXUQureg@@HHN@Z
	?cpu_densmatr_twoQubitDepolarising_subA@@YAXUQureg@@HHN@Z
	?cpu_densmatr_twoQubitDepolarising_subB@@YAXUQureg@@HHN@Z
	?cpu_densmatr_twoQubitDepolarising_subC@@YAXUQureg@@HHN@Z
	?cpu_densmatr_twoQubitDepolarising_subD@@YAXUQureg@@HHN@Z
	?cpu_densmatr_twoQubitDepolarising_subE@@YAXUQureg@@HHN@Z
	?cpu_densmatr_twoQubitDepolarising_subF@@YAXUQureg@@HHN@Z
	?cpu_fullstatediagmatr_setElemsFromMultiDimLists@@YAXUFullStateDiagMatr@@PEAXPEAHH@Z
	?cpu_fullstatediagmatr_setElemsFromMultiVarFunc@@YAXUFullStateDiagMatr@@P6A?AV?$complex@N@std@@PEA_J@ZPEAHHH@Z
	?cpu_fullstatediagmatr_setElemsToPauliStrSum@@YAXUFullStateDiagMatr@@UPauliStrSum@@@Z
	?cpu_getCurrentNumThreads@@YAHXZ
	?cpu_getNumOpenmpProcessors@@YAHXZ
	?cpu_getOpenmpThreadInd@@YAHXZ
	?cpu_isOpenmpCompiled@@YA_NXZ
	?cpu_statevec_calcExpecAnyTargZ_sub@@YANUQureg@@V?$vector@HV?$allocator@H@std@@@std@@@Z
	?cpu_statevec_calcExpecPauliStr_subA@@YA?AV?$complex@N@std@@UQureg@@V?$vector@HV?$allocator@H@std@@@2@11@Z
	?cpu_statevec_calcExpecPauliStr_subB@@YA?AV?$complex@N@std@@UQureg@@V?$vector@HV?$allocator@H@std@@@2@11@Z
	?cpu_statevec_calcInnerProduct_sub@@YA?AV?$complex@N@std@@UQureg@@0@Z
	?cpu_statevec_calcTotalProb_sub@@YANUQureg@@@Z
	?cpu_statevec_getAmp_sub@@YA?AV?$complex@N@std@@UQureg@@_J@Z
	?cpu_statevec_initDebugState_sub@@YAXUQureg@@@Z
	?cpu_statevec_initUniformState_sub@@YAXUQureg@@V?$complex@N@std@@@Z
	?cpu_statevec_initUnnormalisedUniformlyRandomPureStateAmps_sub@@YAXUQureg@@@Z
	?cpu_statevec_packPairSummedAmpsIntoBuffer@@YA_JUQureg@@HHHH@Z
	?cpu_statevec_setQuregToSuperposition_sub@@YAXV?$complex@N@std@@UQureg@@0101@Z
	?createInlineCompMatr@@YA?AUCompMatr@@HV?$vector@V?$vector@V?$complex@N@std@@V?$allocator@V?$complex@N@std@@@2@@std@@V?$allocator@V?$vector@V?$complex@N@std@@V?$allocator@V?$complex@N@std@@@2@@std@@@2@@std@@@Z
	?createInlineDiagMatr@@YA?AUDiagMatr@@HV?$vector@V?$complex@N@std@@V?$allocator@V?$complex@N@std@@@2@@std@@@Z
	?createInlineKrausMap@@YA?AUKrausMap@@HHV?$vector@V?$vector@V?$vector@V?$complex@N@std@@V?$allocator@V?$complex@N@std@@@2@@std@@V?$allocator@V?$vector@V?$complex@N@std@@V?$allocator@V?$complex@N@std@@@2@@std@@@2@@std@@V?$allocator@V?$vector@V?$vector@V?$complex@N@std@@V?$allocator@V?$complex@N@std@@@2@@std@@V?$allocator@V?$vector@V?$complex@N@std@@V?$allocator@V?$complex@N@std@@@2@@std@@@2@@std@@@2@@std@@@Z
	?createInlinePauliStrSum@@YA?AUPauliStrSum@@V?$basic_string@DU?$char_traits@D@std@@V?$allocator@D@2@@std@@@Z
	?createInlineSuperOp@@YA?AUSuperOp@@HV?$vector@V?$vector@V?$complex@N@std@@V?$allocator@V?$complex@N@std@@@2@@std@@V?$allocator@V?$vector@V?$complex@N@std@@V?$allocator@V?$complex@N@std@@@2@@std@@@2@@std@@@Z
	?createPauliStrSum@@YA?AUPauliStrSum@@V?$vector@UPauliStr@@V?$allocator@UPauliStr@@@std@@@std@@V?$vector@V?$complex@N@std@@V?$allocator@V?$complex@N@std@@@2@@3@@Z
	?createPauliStrSumFromFile@@YA?AUPauliStrSum@@V?$basic_string@DU?$char_traits@D@std@@V?$allocator@D@2@@std@@@Z
	?createPauliStrSumFromReversedFile@@YA?AUPauliStrSum@@V?$basic_string@DU?$char_traits@D@std@@V?$allocator@D@2@@std@@@Z
	?createSpoofedLocalStateVecFromDensMatr@@YA?AUQureg@@U1@AEA_N@Z
	?createTempQureg@@YA?AUQureg@@AEAV?$vector@V?$complex@N@std@@V?$allocator@V?$complex@N@std@@@2@@std@@H@Z
	?create_directories@filesystem@std@@YA_NAEBVpath@12@AEAVerror_code@2@@Z
	?deallocate@?$allocator@D@std@@QEAAXQEAD_K@Z
	?deallocate@?$allocator@H@std@@QEAAXQEAH_K@Z
	?deallocate@?$allocator@I@std@@QEAAXQEAI_K@Z
	?deallocate@?$allocator@UGateOp@@@std@@QEAAXQEAUGateOp@@_K@Z
	?deallocate@?$allocator@U_Grp_t@?$_Tgt_state_t@PEBD@std@@@std@@QEAAXQEAU_Grp_t@?$_Tgt_state_t@PEBD@2@_K@Z
	?deallocate@?$allocator@U_Grp_t@?$_Tgt_state_t@V?$_String_const_iterator@V?$_String_val@U?$_Simple_types@D@std@@@std@@@std@@@std@@@std@@QEAAXQEAU_Grp_t@?$_Tgt_state_t@V?$_String_const_iterator@V?$_String_val@U?$_Simple_types@D@std@@@std@@@std@@@2@_K@Z
	?deallocate@?$allocator@V?$_List_unchecked_iterator@V?$_List_val@U?$_List_simple_types@U?$pair@$$CBHH@std@@@std@@@std@@@std@@@std@@QEAAXQEAV?$_List_unchecked_iterator@V?$_List_val@U?$_List_simple_types@U?$pair@$$CBHH@std@@@std@@@std@@@2@_K@Z
	?deallocate@?$allocator@V?$_List_unchecked_iterator@V?$_List_val@U?$_List_simple_types@U?$pair@$$CB_KV?$vector@V?$tuple@UPauliStr@@V?$complex@N@std@@@std@@V?$allocator@V?$tuple@UPauliStr@@V?$complex@N@std@@@std@@@2@@std@@@std@@@std@@@std@@@std@@@std@@QEAAXQEAV?$_List_unchecked_iterator@V?$_List_val@U?$_List_simple_types@U?$pair@$$CB_KV?$vector@V?$tuple@UPauliStr@@V?$complex@N@std@@@std@@V?$allocator@V?$tuple@UPauliStr@@V?$complex@N@std@@@std@@@2@@std@@@std@@@std@@@std@@@2@_K@Z
	?deallocate@?$allocator@V?$sub_match@V?$_String_const_iterator@V?$_String_val@U?$_Simple_types@D@std@@@std@@@std@@@std@@@std@@QEAAXQEAV?$sub_match@V?$_String_const_iterator@V?$_String_val@U?$_Simple_types@D@std@@@std@@@std@@@2@_K@Z
	?default_error_condition@_System_error_category@std@@UEBA?AVerror_condition@2@H@Z
	?default_error_condition@error_category@std@@UEBA?AVerror_condition@2@H@Z
	?default_inputErrorHandler@@YAXPEBD0@Z
	?deleteAllChunkFiles@DiskBackedState@@QEAAXXZ
	?didAnyAllocsFailOnAnyNode@@YA_NUPauliStrSum@@@Z
	?didAnyAllocsFailOnAnyNode@@YA_NUQureg@@@Z
	?didAnyLocalAllocsFail@@YA_NUKrausMap@@@Z
	?didAnyLocalAllocsFail@@YA_NUQureg@@@Z
	?didAnyLocalAllocsFail@@YA_NUSuperOp@@@Z
	?diskBacked_calcTotalProbability@DiskBackedState@@QEBANXZ
	?diskBacked_initRandomPureState@DiskBackedState@@QEAAXXZ
	?dividePayloadIntoMessages@@YA?AV?$array@_J$02@std@@_J@Z
	?dividePow2PayloadIntoMessages@@YA?AV?$array@_J$01@std@@_J@Z
	?doAnyLocalStatesHaveQubitValues@@YA_NUQureg@@V?$vector@HV?$allocator@H@std@@@std@@1@Z
	?do_compare@?$collate@D@std@@MEBAHPEBD000@Z
	?do_hash@?$collate@D@std@@MEBAJPEBD0@Z
	?do_transform@?$collate@D@std@@MEBA?AV?$basic_string@DU?$char_traits@D@std@@V?$allocator@D@2@@2@PEBD0@Z
	?doesChannelRequireComm@@YA_NUQureg@@H@Z
	?doesChannelRequireComm@@YA_NUQureg@@V?$vector@HV?$allocator@H@std@@@std@@@Z
	?doesGateRequireComm@@YA_NUQureg@@H@Z
	?doesGateRequireComm@@YA_NUQureg@@V?$vector@HV?$allocator@H@std@@@std@@@Z
	?equivalent@error_category@std@@UEBA_NAEBVerror_code@2@H@Z
	?equivalent@error_category@std@@UEBA_NHAEBVerror_condition@2@@Z
	?erase@?$basic_string@DU?$char_traits@D@std@@V?$allocator@D@2@@std@@QEAAAEAV12@_K0@Z
	?erase@?$vector@_NV?$allocator@_N@std@@@std@@QEAA?AV?$_Vb_iterator@U?$_Wrap_alloc@V?$allocator@I@std@@@std@@@2@V?$_Vb_const_iterator@U?$_Wrap_alloc@V?$allocator@I@std@@@std@@@2@0@Z
	?error_allocOfQuESTEnvFailed@@YAXXZ
	?error_attemptedToParseComplexFromInvalidString@@YAXXZ
	?error_attemptedToParseOutOfRangeReal@@YAXXZ
	?error_attemptedToParsePauliStringFromInvalidString@@YAXXZ
	?error_attemptedToParseRealFromInvalidString@@YAXXZ
	?error_attemptedToParseUnrecognisedPauliChar@@YAXXZ
	?error_calcFidStateVecDistribWhileDensMatrLocal@@YAXXZ
	?error_commAlreadyInit@@YAXXZ
	?error_commButEnvNotDistributed@@YAXXZ
	?error_commButQuregNotDistributed@@YAXXZ
	?error_commGivenInconsistentNumSubArraysANodes@@YAXXZ
	?error_commNotInit@@YAXXZ
	?error_commNumMessagesExceedTagMax@@YAXXZ
	?error_commOutOfBounds@@YAXXZ
	?error_commWithSameRank@@YAXXZ
	?error_couldNotReadFile@@YAXXZ
	?error_cpuThreadsQueriedButEnvNotMultithreaded@@YAXXZ
	?error_cuQuantumInitOrFinalizedButNotCompiled@@YAXXZ
	?error_cuQuantumTempCpuAllocFailed@@YAXXZ
	?error_cudaCallFailed@@YAXPEBD000H@Z
	?error_gpuAllocButGpuNotCompiled@@YAXXZ
	?error_gpuCacheModifiedButGpuNotCompiled@@YAXXZ
	?error_gpuCopyButGpuNotCompiled@@YAXXZ
	?error_gpuCopyButMatrixNotGpuAccelerated@@YAXXZ
	?error_gpuCopyButQuregNotGpuAccelerated@@YAXXZ
	?error_gpuDeadCopyMatrixFunctionCalled@@YAXXZ
	?error_gpuDeallocButGpuNotCompiled@@YAXXZ
	?error_gpuMemSyncQueriedButEnvNotGpuAccelerated@@YAXXZ
	?error_gpuQueriedButGpuNotCompiled@@YAXXZ
	?error_gpuSimButGpuNotCompiled@@YAXXZ
	?error_gpuSyncedButGpuNotCompiled@@YAXXZ
	?error_gpuUnexpectedlyInaccessible@@YAXXZ
	?error_localiserFailedToAllocTempMemory@@YAXXZ
	?error_localiserGivenDistribMatrixAndLocalQureg@@YAXXZ
	?error_localiserGivenNonUnityGlobalFactorToZTensor@@YAXXZ
	?error_localiserGivenPauliStrWithoutXorY@@YAXXZ
	?error_localiserGivenPauliTensorOrGadgetWithoutXOrY@@YAXXZ
	?error_localiserNumCtrlStatesInconsistentWithNumCtrls@@YAXXZ
	?error_localiserPassedStateVecToChannelComCheck@@YAXXZ
	?error_memSizeQueriedButWouldOverflow@@YAXXZ
	?error_mixQuregsAreLocalDensMatrAndDistribStatevec@@YAXXZ
	?error_noCtrlsGivenToBufferPacker@@YAXXZ
	?error_nodeUnexpectedlyContainedNoElems@@YAXXZ
	?error_pauliStrShiftedByIllegalAmount@@YAXXZ
	?error_printerFailedToAllocTempMemory@@YAXXZ
	?error_randomiserGivenNonNormalisedProbList@@YAXXZ
	?error_thrustTempGpuAllocFailed@@YAXXZ
	?error_utilsGetBraIndGivenNonDensMatr@@YAXXZ
	?error_utilsGetPrefixBraIndGivenNonDensMatr@@YAXXZ
	?error_utilsGetPrefixBraIndGivenSuffixQubit@@YAXXZ
	?error_utilsGetPrefixIndGivenSuffixQubit@@YAXXZ
	?error_utilsGivenGlobalIndexOutsideNode@@YAXXZ
	?error_utilsIsBraQubitInSuffixGivenNonDensMatr@@YAXXZ
	?error_validationEncounteredUnsupportedDistributedDenseMatrix@@YAXXZ
	?error_validationListUniquenessCheckExceededMaskSize@@YAXXZ
	?error_validationMessageContainedUnsubstitutedVars@@YAXV?$basic_string@DU?$char_traits@D@std@@V?$allocator@D@2@@std@@@Z
	?error_validationMessageVarNotSubstituted@@YAXV?$basic_string@DU?$char_traits@D@std@@V?$allocator@D@2@@std@@0@Z
	?error_validationMessageVarWasIllFormed@@YAXV?$basic_string@DU?$char_traits@D@std@@V?$allocator@D@2@@std@@0@Z
	?exchangeAmpsToBuffersWhereQubitsAreInStates@@YAXUQureg@@HV?$vector@HV?$allocator@H@std@@@std@@1@Z
	?exchangeArrays@@YAXPEAV?$complex@N@std@@0_JH@Z
	?exchangeGpuAmpsToGpuBuffers@@YAXUQureg@@_J11H@Z
	?exchangeGpuSubBuffers@@YAXUQureg@@_JH@Z
	?expandMaxWidthsAccordingToLabels@@YAXAEAV?$vector@_KV?$allocator@_K@std@@@std@@AEAV?$vector@V?$basic_string@DU?$char_traits@D@std@@V?$allocator@D@2@@std@@V?$allocator@V?$basic_string@DU?$char_traits@D@std@@V?$allocator@D@2@@std@@@2@@2@@Z
	?freeAllMemoryIfAnyAllocsFailed@@YAXUPauliStrSum@@@Z
	?freeAllMemoryIfAnyAllocsFailed@@YAXUQureg@@@Z
	?freeKrausMap@@YAXUKrausMap@@@Z
	?freeObj@@YAXAEAUKrausMap@@@Z
	?freeObj@@YAXAEAUSuperOp@@@Z
	?freePauliStrSum@@YAXUPauliStrSum@@@Z
	?freeSpoofedLocalStateVec@@YAXUQureg@@_N@Z
	?freeSuperOp@@YAXUSuperOp@@@Z
	?generateChunkPaths@DiskBackedState@@AEAAXXZ
	?generateTransition@PermutationTracker@@QEAA?AUTransition@@AEBV?$vector@HV?$allocator@H@std@@@std@@0@Z
	?generateTransitions@PermutationTracker@@QEAA?AV?$vector@UTransition@@V?$allocator@UTransition@@@std@@@std@@AEBV?$vector@USubCircuit@@V?$allocator@USubCircuit@@@std@@@3@@Z
	?getAmpsPerChunk@DiskBackedState@@QEBA_KXZ
	?getBasisKets@@YA?AV?$vector@V?$basic_string@DU?$char_traits@D@std@@V?$allocator@D@2@@std@@V?$allocator@V?$basic_string@DU?$char_traits@D@std@@V?$allocator@D@2@@std@@@2@@std@@_J0@Z
	?getBlockChunkMapping@PermutationTracker@@QEBA?AV?$vector@V?$vector@HV?$allocator@H@std@@@std@@V?$allocator@V?$vector@HV?$allocator@H@std@@@std@@@2@@std@@XZ
	?getBoundGpuId@@YAHXZ
	?getBoundGpuUuid@@YA?AV?$array@D$0BB@@std@@XZ
	?getChunksPerBlock@DiskBackedState@@QEBAHXZ
	?getCompMatr1@@YA?AUCompMatr1@@V?$vector@V?$vector@V?$complex@N@std@@V?$allocator@V?$complex@N@std@@@2@@std@@V?$allocator@V?$vector@V?$complex@N@std@@V?$allocator@V?$complex@N@std@@@2@@std@@@2@@std@@@Z
	?getCompMatr2@@YA?AUCompMatr2@@V?$vector@V?$vector@V?$complex@N@std@@V?$allocator@V?$complex@N@std@@@2@@std@@V?$allocator@V?$vector@V?$complex@N@std@@V?$allocator@V?$complex@N@std@@@2@@std@@@2@@std@@@Z
	?getCtrlsAndTargsSwappedToMinSuffix@@YA@UQureg@@V?$vector@HV?$allocator@H@std@@@std@@1@Z
	?getCurrentChunkMap@PermutationTracker@@QEBAAEBV?$vector@HV?$allocator@H@std@@@std@@XZ
	?getCurrentPermutation@PermutationTracker@@QEBAAEBV?$vector@HV?$allocator@H@std@@@std@@XZ
	?getDensMatrExpecPauliStrTermOfOnlyThisNode@@YA?AV?$complex@N@std@@UQureg@@UPauliStr@@@Z
	?getDensityQuregAmp@@YA?AV?$complex@N@std@@UQureg@@_J1@Z
	?getDensityQuregAmps@@YA?AV?$vector@V?$vector@V?$complex@N@std@@V?$allocator@V?$complex@N@std@@@2@@std@@V?$allocator@V?$vector@V?$complex@N@std@@V?$allocator@V?$complex@N@std@@@2@@std@@@2@@std@@UQureg@@_J111@Z
	?getDiagMatr1@@YA?AUDiagMatr1@@V?$vector@V?$complex@N@std@@V?$allocator@V?$complex@N@std@@@2@@std@@@Z
	?getDiagMatr2@@YA?AUDiagMatr2@@V?$vector@V?$complex@N@std@@V?$allocator@V?$complex@N@std@@@2@@std@@@Z
	?getHermiticity@@YA_NPEAV?$complex@N@std@@_JN@Z
	?getKrausOperatorIndStr@@YA?AV?$basic_string@DU?$char_traits@D@std@@V?$allocator@D@2@@std@@_J@Z
	?getLocalMemoryRequired@@YA_KHH_N0@Z
	?getMatrixOfQcompStrings@@YA?AV?$vector@V?$vector@V?$basic_string@DU?$char_traits@D@std@@V?$allocator@D@2@@std@@V?$allocator@V?$basic_string@DU?$char_traits@D@std@@V?$allocator@D@2@@std@@@2@@std@@V?$allocator@V?$vector@V?$basic_string@DU?$char_traits@D@std@@V?$allocator@D@2@@std@@V?$allocator@V?$basic_string@DU?$char_traits@D@std@@V?$allocator@D@2@@std@@@2@@std@@@2@@std@@V?$vector@V?$vector@V?$complex@N@std@@V?$allocator@V?$complex@N@std@@@2@@std@@V?$allocator@V?$vector@V?$complex@N@std@@V?$allocator@V?$complex@N@std@@@2@@std@@@2@@2@@Z
	?getMaxNumMessages@@YAHXZ
	?getMaxNumQubitsBeforeGlobalMemSizeofOverflow@@YAH_NH00@Z
	?getMaxNumQubitsWhichCanFitInMemory@@YAH_NH00_J@Z
	?getMaxPermutableQubits@DiskBackedState@@QEBAHXZ
	?getMaxWidthOfColumn@@YA_KV?$vector@V?$vector@V?$basic_string@DU?$char_traits@D@std@@V?$allocator@D@2@@std@@V?$allocator@V?$basic_string@DU?$char_traits@D@std@@V?$allocator@D@2@@std@@@2@@std@@V?$allocator@V?$vector@V?$basic_string@DU?$char_traits@D@std@@V?$allocator@D@2@@std@@V?$allocator@V?$basic_string@DU?$char_traits@D@std@@V?$allocator@D@2@@std@@@2@@std@@@2@@std@@_K@Z
	?getMaxWidthOfColumns@@YA?AV?$vector@_KV?$allocator@_K@std@@@std@@V?$vector@V?$vector@V?$basic_string@DU?$char_traits@D@std@@V?$allocator@D@2@@std@@V?$allocator@V?$basic_string@DU?$char_traits@D@std@@V?$allocator@D@2@@std@@@2@@std@@V?$allocator@V?$vector@V?$basic_string@DU?$char_traits@D@std@@V?$allocator@D@2@@std@@V?$allocator@V?$basic_string@DU?$char_traits@D@std@@V?$allocator@D@2@@std@@@2@@std@@@2@@2@0@Z
	?getMemoryCostsStr@@YA?AV?$basic_string@DU?$char_traits@D@std@@V?$allocator@D@2@@std@@_K_N1@Z
	?getNonSwappedCtrlsAndStates@@YA@V?$vector@HV?$allocator@H@std@@@std@@00@Z
	?getNonTracedQubitOrder@@YA@UQureg@@V?$vector@HV?$allocator@H@std@@@std@@1@Z
	?getNumAmplitudes@DiskBackedState@@QEBA_KXZ
	?getNumBlocks@DiskBackedState@@QEBAHXZ
	?getNumChunks@DiskBackedState@@QEBA_KXZ
	?getNumLines@@YA_JV?$basic_string@DU?$char_traits@D@std@@V?$allocator@D@2@@std@@@Z
	?getNumMatrixElemsStr@@YA?AV?$basic_string@DU?$char_traits@D@std@@V?$allocator@D@2@@std@@_J_NH@Z
	?getNumPaulisInLine@@YAHV?$basic_string@DU?$char_traits@D@std@@V?$allocator@D@2@@std@@@Z
	?getNumQubits@DiskBackedState@@QEBAHXZ
	?getNumQubitsPerBlock@DiskBackedState@@QEBAHXZ
	?getNumQubitsPerChunk@DiskBackedState@@QEBAHXZ
	?getNumQubitsStr@@YA?AV?$basic_string@DU?$char_traits@D@std@@V?$allocator@D@2@@std@@H@Z
	?getPauliFromMaskAt@@YAH_KH@Z
	?getPauliStr@@YA?AUPauliStr@@PEAH0H@Z
	?getPauliStr@@YA?AUPauliStr@@V?$basic_string@DU?$char_traits@D@std@@V?$allocator@D@2@@std@@@Z
	?getPauliStr@@YA?AUPauliStr@@V?$basic_string@DU?$char_traits@D@std@@V?$allocator@D@2@@std@@PEAHH@Z
	?getPauliStr@@YA?AUPauliStr@@V?$basic_string@DU?$char_traits@D@std@@V?$allocator@D@2@@std@@V?$vector@HV?$allocator@H@std@@@3@@Z
	?getPauliStrAsAllQubitsString@@YA?AV?$basic_string@DU?$char_traits@D@std@@V?$allocator@D@2@@std@@UPauliStr@@H@Z
	?getPauliStrAsIndexString@@YA?AV?$basic_string@DU?$char_traits@D@std@@V?$allocator@D@2@@std@@UPauliStr@@H@Z
	?getPauliStrAsString@@YA?AV?$basic_string@DU?$char_traits@D@std@@V?$allocator@D@2@@std@@UPauliStr@@H@Z
	?getPermutationTracker@DiskBackedState@@QEAAAEAVPermutationTracker@@XZ
	?getPrefixOrSuffixQubits@@YA?AV?$vector@HV?$allocator@H@std@@@std@@V12@UQureg@@_N@Z
	?getProductStr@@YA?AV?$basic_string@DU?$char_traits@D@std@@V?$allocator@D@2@@std@@_J0@Z
	?getQubitsSwappedToMaxSuffix@@YA@UQureg@@V?$vector@HV?$allocator@H@std@@@std@@@Z
	?getQuregAmp@@YA?AV?$complex@N@std@@UQureg@@_J@Z
	?getQuregAmps@@YA?AV?$vector@V?$complex@N@std@@V?$allocator@V?$complex@N@std@@@2@@std@@UQureg@@_J1@Z
	?getQuregTypeStr@@YA?AV?$basic_string@DU?$char_traits@D@std@@V?$allocator@D@2@@std@@UQureg@@@Z
	?getRankStr@@YA?AV?$basic_string@DU?$char_traits@D@std@@V?$allocator@D@2@@std@@H@Z
	?getSeeds@@YA?AV?$vector@IV?$allocator@I@std@@@std@@XZ
	?getSpoofedBufferlessQuregFromFullStateDiagMatr@@YA?AUQureg@@UFullStateDiagMatr@@@Z
	?getSpoofedCompMatrFromSuperOp@@YA?AUCompMatr@@USuperOp@@@Z
	?getSpoofedDistributedBufferlessQuregFromLocalQureg@@YA?AUQureg@@U1@0@Z
	?getSpoofedDistributedMatrFromDistributedQureg@@YA?AUFullStateDiagMatr@@U1@UQureg@@@Z
	?getSpoofedLocalStateVecFromDistributedDensMatrBuffers@@YA?AUQureg@@U1@@Z
	?getSpoofedQuregAndMatrWithMatchingDistributions@@YA@UQureg@@UFullStateDiagMatr@@@Z
	?getSpoofedSerialStateVecFromDensMatrAndAmps@@YA?AUQureg@@U1@PEAV?$complex@N@std@@@Z
	?getStateVecExpecAllSuffixPauliStr@@YA?AV?$complex@N@std@@UQureg@@V?$vector@HV?$allocator@H@std@@@2@11@Z
	?getStringWithSubstitutedVars@@YA?AV?$basic_string@DU?$char_traits@D@std@@V?$allocator@D@2@@std@@V12@V?$map@V?$basic_string@DU?$char_traits@D@std@@V?$allocator@D@2@@std@@_JU?$less@V?$basic_string@DU?$char_traits@D@std@@V?$allocator@D@2@@std@@@2@V?$allocator@U?$pair@$$CBV?$basic_string@DU?$char_traits@D@std@@V?$allocator@D@2@@std@@_J@std@@@2@@2@@Z
	?getSwapStepsToTarget@@YA?AV?$vector@U?$pair@HH@std@@V?$allocator@U?$pair@HH@std@@@2@@std@@AEBV?$vector@HV?$allocator@H@std@@@2@0_N@Z
	?getTableTitleStr@@YA?AV?$basic_string@DU?$char_traits@D@std@@V?$allocator@D@2@@std@@V12@@Z
	?getTruncatedMatrixQuadrantInds@@YA?AUMatrixQuadrantInds@@_J0@Z
	?getUnitarity@@YA_NPEAV?$complex@N@std@@_JN@Z
	?getWhetherNonZero@@YA_NPEAV?$complex@N@std@@_JN@Z
	?getWhetherRealsAreStrictlyNonNegative@@YA_NPEAV?$complex@N@std@@_J@Z
	?globallyCombineNonUniformSubArrays@@YAXPEAV?$complex@N@std@@0V?$vector@_JV?$allocator@_J@std@@@2@11_N@Z
	?globallyCombineSubArrays@@YAXPEAV?$complex@N@std@@0_J_N@Z
	?gpu_allocArray@@YAPEAV?$complex@N@std@@_J@Z
	?gpu_areAnyNodesBoundToSameGpu@@YA_NXZ
	?gpu_bindLocalGPUsToNodes@@YAXXZ
	?gpu_clearCache@@YAXXZ
	?gpu_copyArray@@YAXPEAV?$complex@N@std@@0_J@Z
	?gpu_copyCpuToGpu@@YAXPEAV?$complex@N@std@@0_J@Z
	?gpu_copyCpuToGpu@@YAXUCompMatr@@@Z
	?gpu_copyCpuToGpu@@YAXUDiagMatr@@@Z
	?gpu_copyCpuToGpu@@YAXUFullStateDiagMatr@@@Z
	?gpu_copyCpuToGpu@@YAXUQureg@@@Z
	?gpu_copyCpuToGpu@@YAXUQureg@@PEAV?$complex@N@std@@1_J@Z
	?gpu_copyCpuToGpu@@YAXUSuperOp@@@Z
	?gpu_copyGpuToCpu@@YAXPEAV?$complex@N@std@@0_J@Z
	?gpu_copyGpuToCpu@@YAXUCompMatr@@@Z
	?gpu_copyGpuToCpu@@YAXUDiagMatr@@@Z
	?gpu_copyGpuToCpu@@YAXUQureg@@@Z
	?gpu_copyGpuToCpu@@YAXUQureg@@PEAV?$complex@N@std@@1_J@Z
	?gpu_copyGpuToCpu@@YAXUSuperOp@@@Z
	?gpu_deallocArray@@YAXPEAV?$complex@N@std@@@Z
	?gpu_densmatr_calcExpecAnyTargZ_sub@@YA?AV?$complex@N@std@@UQureg@@V?$vector@HV?$allocator@H@std@@@2@@Z
	?gpu_densmatr_calcExpecPauliStr_sub@@YA?AV?$complex@N@std@@UQureg@@V?$vector@HV?$allocator@H@std@@@2@11@Z
	?gpu_densmatr_calcHilbertSchmidtDistance_sub@@YANUQureg@@0@Z
	?gpu_densmatr_calcTotalProb_sub@@YANUQureg@@@Z
	?gpu_densmatr_mixQureg_subA@@YAXNUQureg@@N0@Z
	?gpu_densmatr_mixQureg_subB@@YAXNUQureg@@N0@Z
	?gpu_densmatr_mixQureg_subC@@YAXNUQureg@@N@Z
	?gpu_densmatr_oneQubitDamping_subA@@YAXUQureg@@HN@Z
	?gpu_densmatr_oneQubitDamping_subB@@YAXUQureg@@HN@Z
	?gpu_densmatr_oneQubitDamping_subC@@YAXUQureg@@HN@Z
	?gpu_densmatr_oneQubitDamping_subD@@YAXUQureg@@HN@Z
	?gpu_densmatr_oneQubitDephasing_subA@@YAXUQureg@@HN@Z
	?gpu_densmatr_oneQubitDephasing_subB@@YAXUQureg@@HN@Z
	?gpu_densmatr_oneQubitDepolarising_subA@@YAXUQureg@@HN@Z
	?gpu_densmatr_oneQubitDepolarising_subB@@YAXUQureg@@HN@Z
	?gpu_densmatr_oneQubitPauliChannel_subA@@YAXUQureg@@HNNNN@Z
	?gpu_densmatr_oneQubitPauliChannel_subB@@YAXUQureg@@HNNNN@Z
	?gpu_densmatr_setAmpsToPauliStrSum_sub@@YAXUQureg@@UPauliStrSum@@@Z
	?gpu_densmatr_twoQubitDephasing_subA@@YAXUQureg@@HHN@Z
	?gpu_densmatr_twoQubitDephasing_subB@@YAXUQureg@@HHN@Z
	?gpu_densmatr_twoQubitDepolarising_subA@@YAXUQureg@@HHN@Z
	?gpu_densmatr_twoQubitDepolarising_subB@@YAXUQureg@@HHN@Z
	?gpu_densmatr_twoQubitDepolarising_subC@@YAXUQureg@@HHN@Z
	?gpu_densmatr_twoQubitDepolarising_subD@@YAXUQureg@@HHN@Z
	?gpu_densmatr_twoQubitDepolarising_subE@@YAXUQureg@@HHN@Z
	?gpu_densmatr_twoQubitDepolarising_subF@@YAXUQureg@@HHN@Z
	?gpu_doesGpuSupportMemPools@@YA_NXZ
	?gpu_finalizeCuQuantum@@YAXXZ
	?gpu_fullstatediagmatr_setElemsToPauliStrSum@@YAXUFullStateDiagMatr@@UPauliStrSum@@@Z
	?gpu_getCacheMemoryInBytes@@YA_KXZ
	?gpu_getCacheOfSize@@YAPEAV?$complex@N@std@@_J0@Z
	?gpu_getComputeCapability@@YAHXZ
	?gpu_getCurrentAvailableMemoryInBytes@@YA_KXZ
	?gpu_getMaxNumConcurrentThreads@@YA_JXZ
	?gpu_getNumberOfLocalGpus@@YAHXZ
	?gpu_getTotalMemoryInBytes@@YA_KXZ
	?gpu_initCuQuantum@@YAXXZ
	?gpu_isCuQuantumCompiled@@YA_NXZ
	?gpu_isDirectGpuCommPossible@@YA_NXZ
	?gpu_isGpuAvailable@@YA_NXZ
	?gpu_isGpuCompiled@@YA_NXZ
	?gpu_statevec_calcExpecAnyTargZ_sub@@YANUQureg@@V?$vector@HV?$allocator@H@std@@@std@@@Z
	?gpu_statevec_calcExpecPauliStr_subA@@YA?AV?$complex@N@std@@UQureg@@V?$vector@HV?$allocator@H@std@@@2@11@Z
	?gpu_statevec_calcExpecPauliStr_subB@@YA?AV?$complex@N@std@@UQureg@@V?$vector@HV?$allocator@H@std@@@2@11@Z
	?gpu_statevec_calcInnerProduct_sub@@YA?AV?$complex@N@std@@UQureg@@0@Z
	?gpu_statevec_calcTotalProb_sub@@YANUQureg@@@Z
	?gpu_statevec_getAmp_sub@@YA?AV?$complex@N@std@@UQureg@@_J@Z
	?gpu_statevec_initDebugState_sub@@YAXUQureg@@@Z
	?gpu_statevec_initUniformState_sub@@YAXUQureg@@V?$complex@N@std@@@Z
	?gpu_statevec_initUnnormalisedUniformlyRandomPureStateAmps_sub@@YAXUQureg@@@Z
	?gpu_statevec_packPairSummedAmpsIntoBuffer@@YA_JUQureg@@HHHH@Z
	?gpu_statevec_setQuregToSuperposition_sub@@YAXV?$complex@N@std@@UQureg@@0101@Z
	?gpu_sync@@YAXXZ
	?group@patterns@@YA?AV?$basic_string@DU?$char_traits@D@std@@V?$allocator@D@2@@std@@V23@@Z
	?imbue@?$basic_filebuf@DU?$char_traits@D@std@@@std@@MEAAXAEBVlocale@2@@Z
	?insert@?$basic_string@DU?$char_traits@D@std@@V?$allocator@D@2@@std@@QEAAAEAV12@_K0D@Z
	?insert@?$basic_string@DU?$char_traits@D@std@@V?$allocator@D@2@@std@@QEAAAEAV12@_KQEBD0@Z
	?insert@?$vector@HV?$allocator@H@std@@@std@@QEAA?AV?$_Vector_iterator@V?$_Vector_val@U?$_Simple_types@H@std@@@std@@@2@V?$_Vector_const_iterator@V?$_Vector_val@U?$_Simple_types@H@std@@@std@@@2@_KAEBH@Z
	?isApprox@@YA_NNNN@Z
	?isApprox@@YA_NV?$complex@N@std@@0N@Z
	?isCoeffValidInPauliStrSumLine@@YA_NV?$basic_string@DU?$char_traits@D@std@@V?$allocator@D@2@@std@@@Z
	?isGateLocal@@YA_NAEBUGateOp@@AEBV?$vector@HV?$allocator@H@std@@@std@@H@Z
	?isIndexListUnique@@YA_NPEAHH@Z
	?isInterpretablePauliStrSumLine@@YA_NV?$basic_string@DU?$char_traits@D@std@@V?$allocator@D@2@@std@@@Z
	?isNotWhiteSpace@@YA_ND@Z
	?isNumericalValidationDisabled@@YA_NXZ
	?isOnlyWhiteSpace@@YA_NV?$basic_string@DU?$char_traits@D@std@@V?$allocator@D@2@@std@@@Z
	?isWhiteSpace@@YA_ND@Z
	?left@std@@YAAEAVios_base@1@AEAV21@@Z
	?loadBlock@DiskBackedState@@QEBAXHAEBV?$vector@HV?$allocator@H@std@@@std@@AEAV?$vector@V?$complex@N@std@@V?$allocator@V?$complex@N@std@@@2@@3@@Z
	?loadChunk@DiskBackedState@@QEBAX_KAEAV?$vector@V?$complex@N@std@@V?$allocator@V?$complex@N@std@@@2@@std@@@Z
	?localiser_densmatr_allTargDiagMatr@@YAXUQureg@@UFullStateDiagMatr@@V?$complex@N@std@@_N@Z
	?localiser_densmatr_calcExpecFullStateDiagMatr@@YA?AV?$complex@N@std@@UQureg@@UFullStateDiagMatr@@V12@_N@Z
	?localiser_densmatr_calcExpecPauliStr@@YA?AV?$complex@N@std@@UQureg@@UPauliStr@@@Z
	?localiser_densmatr_calcExpecPauliStrSum@@YA?AV?$complex@N@std@@UQureg@@UPauliStrSum@@@Z
	?localiser_densmatr_calcFidelityWithPureState@@YA?AV?$complex@N@std@@UQureg@@0_N@Z
	?localiser_densmatr_calcHilbertSchmidtDistance@@YANUQureg@@0@Z
	?localiser_densmatr_calcProbOfMultiQubitOutcome@@YANUQureg@@V?$vector@HV?$allocator@H@std@@@std@@1@Z
	?localiser_densmatr_calcProbsOfAllMultiQubitOutcomes@@YAXPEANUQureg@@V?$vector@HV?$allocator@H@std@@@std@@@Z
	?localiser_densmatr_calcTotalProb@@YANUQureg@@@Z
	?localiser_densmatr_getAmps@@YAXPEAPEAV?$complex@N@std@@UQureg@@_J222@Z
	?localiser_densmatr_initArbitraryMixedState@@YAXUQureg@@PEAPEAV?$complex@N@std@@@Z
	?localiser_densmatr_initArbitraryPureState@@YAXUQureg@@PEAV?$complex@N@std@@@Z
	?localiser_densmatr_initMixtureOfUniformlyRandomPureStates@@YAXUQureg@@_J@Z
	?localiser_densmatr_initPureState@@YAXUQureg@@0@Z
	?localiser_densmatr_initUniformlyRandomPureStateAmps@@YAXUQureg@@@Z
	?localiser_densmatr_krausMap@@YAXUQureg@@UKrausMap@@V?$vector@HV?$allocator@H@std@@@std@@@Z
	?localiser_densmatr_mixQureg@@YAXNUQureg@@N0@Z
	?localiser_densmatr_multiQubitProjector@@YAXUQureg@@V?$vector@HV?$allocator@H@std@@@std@@1N@Z
	?localiser_densmatr_oneQubitDamping@@YAXUQureg@@HN@Z
	?localiser_densmatr_oneQubitDephasing@@YAXUQureg@@HN@Z
	?localiser_densmatr_oneQubitDepolarising@@YAXUQureg@@HN@Z
	?localiser_densmatr_oneQubitPauliChannel@@YAXUQureg@@HNNN@Z
	?localiser_densmatr_partialTrace@@YAXUQureg@@0V?$vector@HV?$allocator@H@std@@@std@@@Z
	?localiser_densmatr_setAmps@@YAXPEAPEAV?$complex@N@std@@UQureg@@_J222@Z
	?localiser_densmatr_setAmpsToPauliStrSum@@YAXUQureg@@UPauliStrSum@@@Z
	?localiser_densmatr_superoperator@@YAXUQureg@@USuperOp@@V?$vector@HV?$allocator@H@std@@@std@@@Z
	?localiser_densmatr_twoQubitDephasing@@YAXUQureg@@HHN@Z
	?localiser_densmatr_twoQubitDepolarising@@YAXUQureg@@HHN@Z
	?localiser_fullstatediagmatr_getElems@@YAXPEAV?$complex@N@std@@UFullStateDiagMatr@@_J2@Z
	?localiser_fullstatediagmatr_setElems@@YAXUFullStateDiagMatr@@_JPEAV?$complex@N@std@@1@Z
	?localiser_fullstatediagmatr_setElemsToPauliStrSum@@YAXUFullStateDiagMatr@@UPauliStrSum@@@Z
	?localiser_statevec_allTargDiagMatr@@YAXUQureg@@UFullStateDiagMatr@@V?$complex@N@std@@@Z
	?localiser_statevec_anyCtrlAnyTargDenseMatr@@YAXUQureg@@V?$vector@HV?$allocator@H@std@@@std@@11UCompMatr@@_N@Z
	?localiser_statevec_anyCtrlAnyTargDiagMatr@@YAXUQureg@@V?$vector@HV?$allocator@H@std@@@std@@11UDiagMatr@@V?$complex@N@3@_N@Z
	?localiser_statevec_anyCtrlOneTargDenseMatr@@YAXUQureg@@V?$vector@HV?$allocator@H@std@@@std@@1HUCompMatr1@@_N@Z
	?localiser_statevec_anyCtrlOneTargDiagMatr@@YAXUQureg@@V?$vector@HV?$allocator@H@std@@@std@@1HUDiagMatr1@@_N@Z
	?localiser_statevec_anyCtrlPauliGadget@@YAXUQureg@@V?$vector@HV?$allocator@H@std@@@std@@1UPauliStr@@N@Z
	?localiser_statevec_anyCtrlPauliTensor@@YAXUQureg@@V?$vector@HV?$allocator@H@std@@@std@@1UPauliStr@@V?$complex@N@3@@Z
	?localiser_statevec_anyCtrlPhaseGadget@@YAXUQureg@@V?$vector@HV?$allocator@H@std@@@std@@11N@Z
	?localiser_statevec_anyCtrlSwap@@YAXUQureg@@V?$vector@HV?$allocator@H@std@@@std@@1HH@Z
	?localiser_statevec_anyCtrlTwoTargDenseMatr@@YAXUQureg@@V?$vector@HV?$allocator@H@std@@@std@@1HHUCompMatr2@@_N@Z
	?localiser_statevec_anyCtrlTwoTargDiagMatr@@YAXUQureg@@V?$vector@HV?$allocator@H@std@@@std@@1HHUDiagMatr2@@_N@Z
	?localiser_statevec_calcExpecFullStateDiagMatr@@YA?AV?$complex@N@std@@UQureg@@UFullStateDiagMatr@@V12@_N@Z
	?localiser_statevec_calcExpecPauliStr@@YA?AV?$complex@N@std@@UQureg@@UPauliStr@@@Z
	?localiser_statevec_calcExpecPauliStrSum@@YA?AV?$complex@N@std@@UQureg@@UPauliStrSum@@@Z
	?localiser_statevec_calcInnerProduct@@YA?AV?$complex@N@std@@UQureg@@0@Z
	?localiser_statevec_calcProbOfMultiQubitOutcome@@YANUQureg@@V?$vector@HV?$allocator@H@std@@@std@@1@Z
	?localiser_statevec_calcProbsOfAllMultiQubitOutcomes@@YAXPEANUQureg@@V?$vector@HV?$allocator@H@std@@@std@@@Z
	?localiser_statevec_calcTotalProb@@YANUQureg@@@Z
	?localiser_statevec_getAmp@@YA?AV?$complex@N@std@@UQureg@@_J@Z
	?localiser_statevec_getAmps@@YAXPEAV?$complex@N@std@@UQureg@@_J2@Z
	?localiser_statevec_initArbitraryPureState@@YAXUQureg@@PEAV?$complex@N@std@@@Z
	?localiser_statevec_initClassicalState@@YAXUQureg@@_J@Z
	?localiser_statevec_initDebugState@@YAXUQureg@@@Z
	?localiser_statevec_initUniformState@@YAXUQureg@@V?$complex@N@std@@@Z
	?localiser_statevec_initUnnormalisedUniformlyRandomPureStateAmps@@YAXUQureg@@@Z
	?localiser_statevec_multiQubitProjector@@YAXUQureg@@V?$vector@HV?$allocator@H@std@@@std@@1N@Z
	?localiser_statevec_setAmps@@YAXPEAV?$complex@N@std@@UQureg@@_J2@Z
	?localiser_statevec_setQuregToSuperposition@@YAXV?$complex@N@std@@UQureg@@0101@Z
	?make_error_code@std@@YA?AVerror_code@1@W4errc@1@@Z
	?mem_canMatrixFitInMemory@@YA_NH_NH_J@Z
	?mem_canQuregFitInMemory@@YA_NH_NH_J@Z
	?mem_canSuperOpFitInMemory@@YA_NH_J@Z
	?mem_getEffectiveNumStateVecQubitsPerNode@@YAHH_NH@Z
	?mem_getLocalMatrixMemoryRequired@@YA_KH_NH@Z
	?mem_getLocalQuregMemoryRequired@@YA_KH_NH@Z
	?mem_getLocalQuregMemoryRequired@@YA_K_J@Z
	?mem_getLocalSuperOpMemoryRequired@@YA_KH@Z
	?mem_getMaxNumKrausMapMatricesBeforeIndexOverflow@@YA_JH@Z
	?mem_getMaxNumKrausMapMatricesBeforeLocalMemSizeofOverflow@@YA_JH@Z
	?mem_getMaxNumMatrixQubitsBeforeGlobalMemSizeofOverflow@@YAH_NH@Z
	?mem_getMaxNumMatrixQubitsBeforeIndexOverflow@@YAH_N@Z
	?mem_getMaxNumMatrixQubitsWhichCanFitInMemory@@YAH_NH_J@Z
	?mem_getMaxNumQuregQubitsBeforeGlobalMemSizeofOverflow@@YAH_NH@Z
	?mem_getMaxNumQuregQubitsBeforeIndexOverflow@@YAH_N@Z
	?mem_getMaxNumQuregQubitsWhichCanFitInMemory@@YAH_NH_J@Z
	?mem_getMaxNumSuperOpQubitsBeforeGlobalMemSizeofOverflow@@YAHXZ
	?mem_getMaxNumSuperOpQubitsBeforeIndexOverflow@@YAHXZ
	?mem_getMaxNumSuperOpQubitsWhichCanFitInMemory@@YAH_J@Z
	?mem_getMinNumQubitsForDistribution@@YAHH@Z
	?mem_getTotalGlobalMemoryUsed@@YA_JUQureg@@@Z
	?mem_isAllocated@@YA_NPEAH@Z
	?mem_isAllocated@@YA_NPEAPEAPEAV?$complex@N@std@@_JH@Z
	?mem_isAllocated@@YA_NPEAPEAV?$complex@N@std@@_J@Z
	?mem_isAllocated@@YA_NPEAUPauliStr@@@Z
	?mem_isAllocated@@YA_NPEAV?$complex@N@std@@@Z
	?mem_isOuterAllocated@@YA_NPEAPEAPEAV?$complex@N@std@@@Z
	?mem_isOuterAllocated@@YA_NPEAPEAV?$complex@N@std@@@Z
	?mem_isOuterAllocated@@YA_NPEAV?$complex@N@std@@@Z
	?mem_tryGetLocalRamCapacityInBytes@@YA_JXZ
	?message@_Generic_error_category@std@@UEBA?AV?$basic_string@DU?$char_traits@D@std@@V?$allocator@D@2@@2@H@Z
	?message@_System_error_category@std@@UEBA?AV?$basic_string@DU?$char_traits@D@std@@V?$allocator@D@2@@2@H@Z
	?mixDensityMatrixWithStatevector@@YAXNUQureg@@N0@Z
	?mixKrausMap@@YAXUQureg@@V?$vector@HV?$allocator@H@std@@@std@@UKrausMap@@@Z
	?mixSuperOp@@YAXUQureg@@V?$vector@HV?$allocator@H@std@@@std@@USuperOp@@@Z
	?multiplyCompMatr@@YAXUQureg@@V?$vector@HV?$allocator@H@std@@@std@@UCompMatr@@@Z
	?multiplyDiagMatr@@YAXUQureg@@V?$vector@HV?$allocator@H@std@@@std@@UDiagMatr@@@Z
	?multiplyDiagMatrPower@@YAXUQureg@@V?$vector@HV?$allocator@H@std@@@std@@UDiagMatr@@V?$complex@N@3@@Z
	?multiplyMultiQubitNot@@YAXUQureg@@V?$vector@HV?$allocator@H@std@@@std@@@Z
	?multiplyPhaseGadget@@YAXUQureg@@V?$vector@HV?$allocator@H@std@@@std@@N@Z
	?name@_Generic_error_category@std@@UEBAPEBDXZ
	?name@_System_error_category@std@@UEBAPEBDXZ
	?name@locale@std@@QEBA?AV?$basic_string@DU?$char_traits@D@std@@V?$allocator@D@2@@2@XZ
	?noshowpos@std@@YAAEAVios_base@1@AEAV21@@Z
	?oneQubitDampingOnPrefix@@YAXUQureg@@HN@Z
	?oneQubitDepolarisingOnPrefix@@YAXUQureg@@HN@Z
	?oneQubitPauliChannelOnPrefix@@YAXUQureg@@HNNNN@Z
	?opt@patterns@@YA?AV?$basic_string@DU?$char_traits@D@std@@V?$allocator@D@2@@std@@V23@@Z
	?optimisePermutationWithLookahead@@YA?AV?$vector@HV?$allocator@H@std@@@std@@AEBV12@AEBV?$vector@UGateOp@@V?$allocator@UGateOp@@@std@@@2@HH_N@Z
	?overflow@?$basic_filebuf@DU?$char_traits@D@std@@@std@@MEAAHH@Z
	?overflow@?$basic_stringbuf@DU?$char_traits@D@std@@V?$allocator@D@2@@std@@MEAAHH@Z
	?parseCoeff@@YA?AV?$complex@N@std@@V?$basic_string@DU?$char_traits@D@std@@V?$allocator@D@2@@2@@Z
	?parseLine@@YAXV?$basic_string@DU?$char_traits@D@std@@V?$allocator@D@2@@std@@AEAV?$complex@N@2@AEAUPauliStr@@_N@Z
	?parsePaulis@@YA?AUPauliStr@@V?$basic_string@DU?$char_traits@D@std@@V?$allocator@D@2@@std@@_N@Z
	?parseReal@@YANV?$basic_string@DU?$char_traits@D@std@@V?$allocator@D@2@@std@@@Z
	?parser_canReadFile@@YA_NV?$basic_string@DU?$char_traits@D@std@@V?$allocator@D@2@@std@@@Z
	?parser_getPauliIntFromChar@@YAHD@Z
	?parser_loadFile@@YA?AV?$basic_string@DU?$char_traits@D@std@@V?$allocator@D@2@@std@@V12@@Z
	?parser_validateAndParsePauliStrSum@@YA?AUPauliStrSum@@V?$basic_string@DU?$char_traits@D@std@@V?$allocator@D@2@@std@@_NPEBD@Z
	?partialTraceOnPrefix@@YAXUQureg@@0V?$vector@HV?$allocator@H@std@@@std@@@Z
	?partialTraceOnSuffix@@YAXUQureg@@0V?$vector@HV?$allocator@H@std@@@std@@@Z
	?partitionIntoSubcircuits@GateScheduler@@QEBA?AV?$vector@USubCircuit@@V?$allocator@USubCircuit@@@std@@@std@@HHAEAVDiskBackedState@@_N@Z
	?paulis_containsXOrY@@YA_NUPauliStr@@@Z
	?paulis_containsXOrY@@YA_NUPauliStrSum@@@Z
	?paulis_getIndOfLefmostNonIdentityPauli@@YAHPEAUPauliStr@@_J@Z
	?paulis_getIndOfLefmostNonIdentityPauli@@YAHUPauliStr@@@Z
	?paulis_getIndOfLefmostNonIdentityPauli@@YAHUPauliStrSum@@@Z
	?paulis_getInds@@YA?AV?$vector@HV?$allocator@H@std@@@std@@UPauliStr@@@Z
	?paulis_getKetAndBraPauliStr@@YA?AUPauliStr@@U1@UQureg@@@Z
	?paulis_getKeyOfSameMixedAmpsGroup@@YA_KUPauliStr@@@Z
	?paulis_getPauliAt@@YAHUPauliStr@@H@Z
	?paulis_getPrefixPaulisElem@@YA?AV?$complex@N@std@@UQureg@@V?$vector@HV?$allocator@H@std@@@2@1@Z
	?paulis_getPrefixZSign@@YAHUQureg@@V?$vector@HV?$allocator@H@std@@@std@@@Z
	?paulis_getSeparateInds@@YA?AV?$array@V?$vector@HV?$allocator@H@std@@@std@@$02@std@@UPauliStr@@UQureg@@@Z
	?paulis_getShiftedPauliStr@@YA?AUPauliStr@@U1@H@Z
	?paulis_hasOddNumY@@YA_NUPauliStr@@@Z
	?paulis_isIdentity@@YA_NUPauliStr@@@Z
	?pbackfail@?$basic_filebuf@DU?$char_traits@D@std@@@std@@MEAAHH@Z
	?pbackfail@?$basic_stringbuf@DU?$char_traits@D@std@@V?$allocator@D@2@@std@@MEAAHH@Z
	?populateDensityMatrixColumnLabels@@YAXAEAV?$vector@V?$basic_string@DU?$char_traits@D@std@@V?$allocator@D@2@@std@@V?$allocator@V?$basic_string@DU?$char_traits@D@std@@V?$allocator@D@2@@std@@@2@@std@@0UQureg@@UMatrixQuadrantInds@@@Z
	?populateManyColumnQcompmatr@@YAXAEAV?$vector@V?$vector@V?$complex@N@std@@V?$allocator@V?$complex@N@std@@@2@@std@@V?$allocator@V?$vector@V?$complex@N@std@@V?$allocator@V?$complex@N@std@@@2@@std@@@2@@std@@_J1UQureg@@@Z
	?populateMatrixQuadrants@@YAXUMatrixQuadrantInds@@AEAV?$vector@V?$vector@V?$complex@N@std@@V?$allocator@V?$complex@N@std@@@2@@std@@V?$allocator@V?$vector@V?$complex@N@std@@V?$allocator@V?$complex@N@std@@@2@@std@@@2@@std@@111UQureg@@@Z
	?populateSingleColumnQcompmatr@@YAXAEAV?$vector@V?$vector@V?$complex@N@std@@V?$allocator@V?$complex@N@std@@@2@@std@@V?$allocator@V?$vector@V?$complex@N@std@@V?$allocator@V?$complex@N@std@@@2@@std@@@2@@std@@_JUPauliStrSum@@@Z
	?print@@YAXPEBD@Z
	?print@@YAXV?$basic_string@DU?$char_traits@D@std@@V?$allocator@D@2@@std@@@Z
	?print@@YAXV?$complex@N@std@@@Z
	?printCompilationInfo@@YAXXZ
	?printContiguousRowsInTwoQuadrants@@YAXV?$vector@V?$vector@V?$basic_string@DU?$char_traits@D@std@@V?$allocator@D@2@@std@@V?$allocator@V?$basic_string@DU?$char_traits@D@std@@V?$allocator@D@2@@std@@@2@@std@@V?$allocator@V?$vector@V?$basic_string@DU?$char_traits@D@std@@V?$allocator@D@2@@std@@V?$allocator@V?$basic_string@DU?$char_traits@D@std@@V?$allocator@D@2@@std@@@2@@std@@@2@@std@@V?$vector@_KV?$allocator@_K@std@@@2@01V?$vector@V?$basic_string@DU?$char_traits@D@std@@V?$allocator@D@2@@std@@V?$allocator@V?$basic_string@DU?$char_traits@D@std@@V?$allocator@D@2@@std@@@2@@2@V?$basic_string@DU?$char_traits@D@std@@V?$allocator@D@2@@2@3_K@Z
	?printCpuInfo@@YAXXZ
	?printDeploymentInfo@@YAXUQureg@@@Z
	?printDeploymentInfo@@YAXXZ
	?printDimensionInfo@@YAXUQureg@@@Z
	?printDistributionInfo@@YAXUQureg@@@Z
	?printDistributionInfo@@YAXXZ
	?printGpuInfo@@YAXXZ
	?printHeader@@YAXV?$basic_string@DU?$char_traits@D@std@@V?$allocator@D@2@@std@@V?$vector@V?$basic_string@DU?$char_traits@D@std@@V?$allocator@D@2@@std@@V?$allocator@V?$basic_string@DU?$char_traits@D@std@@V?$allocator@D@2@@std@@@2@@2@@Z
	?printMatrixInFourQuadrants@@YAXV?$vector@V?$vector@V?$complex@N@std@@V?$allocator@V?$complex@N@std@@@2@@std@@V?$allocator@V?$vector@V?$complex@N@std@@V?$allocator@V?$complex@N@std@@@2@@std@@@2@@std@@000V?$vector@V?$basic_string@DU?$char_traits@D@std@@V?$allocator@D@2@@std@@V?$allocator@V?$basic_string@DU?$char_traits@D@std@@V?$allocator@D@2@@std@@@2@@2@111V?$basic_string@DU?$char_traits@D@std@@V?$allocator@D@2@@2@22@Z
	?printMemoryInfo@@YAXUQureg@@@Z
	?printPerRowIndent@@YAXV?$basic_string@DU?$char_traits@D@std@@V?$allocator@D@2@@std@@_K0@Z
	?printPrecisionInfo@@YAXXZ
	?printQuregAutoDeployments@@YAX_N@Z
	?printQuregSizeLimits@@YAX_N@Z
	?printRowInTwoQuadrants@@YAXV?$vector@V?$basic_string@DU?$char_traits@D@std@@V?$allocator@D@2@@std@@V?$allocator@V?$basic_string@DU?$char_traits@D@std@@V?$allocator@D@2@@std@@@2@@std@@V?$vector@_KV?$allocator@_K@std@@@2@01@Z
	?print_elems@@YAXUCompMatr1@@V?$basic_string@DU?$char_traits@D@std@@V?$allocator@D@2@@std@@@Z
	?print_elems@@YAXUCompMatr2@@V?$basic_string@DU?$char_traits@D@std@@V?$allocator@D@2@@std@@@Z
	?print_elems@@YAXUCompMatr@@V?$basic_string@DU?$char_traits@D@std@@V?$allocator@D@2@@std@@@Z
	?print_elems@@YAXUDiagMatr1@@V?$basic_string@DU?$char_traits@D@std@@V?$allocator@D@2@@std@@@Z
	?print_elems@@YAXUDiagMatr2@@V?$basic_string@DU?$char_traits@D@std@@V?$allocator@D@2@@std@@@Z
	?print_elems@@YAXUDiagMatr@@V?$basic_string@DU?$char_traits@D@std@@V?$allocator@D@2@@std@@@Z
	?print_elems@@YAXUFullStateDiagMatr@@V?$basic_string@DU?$char_traits@D@std@@V?$allocator@D@2@@std@@@Z
	?print_elems@@YAXUKrausMap@@V?$basic_string@DU?$char_traits@D@std@@V?$allocator@D@2@@std@@@Z
	?print_elems@@YAXUPauliStrSum@@V?$basic_string@DU?$char_traits@D@std@@V?$allocator@D@2@@std@@@Z
	?print_elems@@YAXUQureg@@V?$basic_string@DU?$char_traits@D@std@@V?$allocator@D@2@@std@@@Z
	?print_elems@@YAXUSuperOp@@V?$basic_string@DU?$char_traits@D@std@@V?$allocator@D@2@@std@@@Z
	?print_elemsWithoutNewline@@YAXUPauliStr@@V?$basic_string@DU?$char_traits@D@std@@V?$allocator@D@2@@std@@@Z
	?print_header@@YAXUCompMatr1@@_K@Z
	?print_header@@YAXUCompMatr2@@_K@Z
	?print_header@@YAXUCompMatr@@_K@Z
	?print_header@@YAXUDiagMatr1@@_K@Z
	?print_header@@YAXUDiagMatr2@@_K@Z
	?print_header@@YAXUDiagMatr@@_K@Z
	?print_header@@YAXUFullStateDiagMatr@@_K@Z
	?print_header@@YAXUKrausMap@@_K@Z
	?print_header@@YAXUPauliStrSum@@_K@Z
	?print_header@@YAXUQureg@@_K@Z
	?print_header@@YAXUSuperOp@@_K@Z
	?print_label@@YAXV?$basic_string@DU?$char_traits@D@std@@V?$allocator@D@2@@std@@@Z
	?print_newlines@@YAXXZ
	?print_oneFewerNewlines@@YAXXZ
	?print_table@@YAXV?$basic_string@DU?$char_traits@D@std@@V?$allocator@D@2@@std@@00@Z
	?print_table@@YAXV?$basic_string@DU?$char_traits@D@std@@V?$allocator@D@2@@std@@V?$vector@V?$tuple@V?$basic_string@DU?$char_traits@D@std@@V?$allocator@D@2@@std@@V12@@std@@V?$allocator@V?$tuple@V?$basic_string@DU?$char_traits@D@std@@V?$allocator@D@2@@std@@V12@@std@@@2@@2@0@Z
	?print_table@@YAXV?$basic_string@DU?$char_traits@D@std@@V?$allocator@D@2@@std@@V?$vector@V?$tuple@V?$basic_string@DU?$char_traits@D@std@@V?$allocator@D@2@@std@@_J@std@@V?$allocator@V?$tuple@V?$basic_string@DU?$char_traits@D@std@@V?$allocator@D@2@@std@@_J@std@@@2@@2@0@Z
	?printer_getFloatPrecisionFlag@@YA?AV?$basic_string@DU?$char_traits@D@std@@V?$allocator@D@2@@std@@XZ
	?printer_getMemoryWithUnitStr@@YA?AV?$basic_string@DU?$char_traits@D@std@@V?$allocator@D@2@@std@@_K@Z
	?printer_getNumTrailingNewlines@@YAHXZ
	?printer_getQcompType@@YA?AV?$basic_string@DU?$char_traits@D@std@@V?$allocator@D@2@@std@@XZ
	?printer_getQindexType@@YA?AV?$basic_string@DU?$char_traits@D@std@@V?$allocator@D@2@@std@@XZ
	?printer_getQrealType@@YA?AV?$basic_string@DU?$char_traits@D@std@@V?$allocator@D@2@@std@@XZ
	?printer_setMaxNumPrintedScalars@@YAX_J0@Z
	?printer_setMaxNumPrintedSigFig@@YAXH@Z
	?printer_setNumTrailingNewlines@@YAXH@Z
	?printer_setPauliChars@@YAXV?$basic_string@DU?$char_traits@D@std@@V?$allocator@D@2@@std@@@Z
	?printer_setPauliStrFormat@@YAXH@Z
	?printer_toStr@@YA?AV?$basic_string@DU?$char_traits@D@std@@V?$allocator@D@2@@std@@N@Z
	?push@?$ThreadSafeQueue@UBlockData@@@@QEAAXUBlockData@@@Z
	?push_back@?$basic_string@DU?$char_traits@D@std@@V?$allocator@D@2@@std@@QEAAXD@Z
	?push_back@?$vector@HV?$allocator@H@std@@@std@@QEAAXAEBH@Z
	?qureg_populateNonHeapFields@@YA?AUQureg@@HHHHH@Z
	?raiseInternalError@@YAXV?$basic_string@DU?$char_traits@D@std@@V?$allocator@D@2@@std@@@Z
	?rand_getNumSeeds@@YAHXZ
	?rand_getRandomMultiQubitOutcome@@YA_JV?$vector@NV?$allocator@N@std@@@std@@@Z
	?rand_getRandomSingleQubitOutcome@@YAHN@Z
	?rand_getSeeds@@YA?AV?$vector@IV?$allocator@I@std@@@std@@XZ
	?rand_getThreadPrivateAmpAbsDistribution@@YA?AV?$normal_distribution@N@std@@XZ
	?rand_getThreadPrivateAmpPhaseDistribution@@YA?AV?$uniform_real_distribution@N@std@@XZ
	?rand_getThreadPrivateGenerator@@YA?AV?$mersenne_twister_engine@_K$0EA@$0BDI@$0JM@$0BP@$0?EKPNJAKFFGJJOGBH@$0BN@$0FFFFFFFFFFFFFFFF@$0BB@$0HBNGHPPPONKGAAAA@$0CF@$0?IBBCAAAAAAAAA@$0CL@$0FIFBPECNEMJFHPCN@@std@@IH@Z
	?rand_getThreadPrivateRandomAmp@@YA?AV?$complex@N@std@@AEAV?$mersenne_twister_engine@_K$0EA@$0BDI@$0JM@$0BP@$0?EKPNJAKFFGJJOGBH@$0BN@$0FFFFFFFFFFFFFFFF@$0BB@$0HBNGHPPPONKGAAAA@$0CF@$0?IBBCAAAAAAAAA@$0CL@$0FIFBPECNEMJFHPCN@@2@AEAV?$normal_distribution@N@2@AEAV?$uniform_real_distribution@N@2@@Z
	?rand_getThreadSharedRandomSeed@@YAI_N@Z
	?rand_setSeeds@@YAXV?$vector@IV?$allocator@I@std@@@std@@@Z
	?rand_setSeedsToDefault@@YAXXZ
	?receiveArray@@YAXPEAV?$complex@N@std@@_JH@Z
	?receiveArrayToGpuBuffer@@YAXUQureg@@_JH@Z
	?removePrefixQubitsAndStates@@YAXUQureg@@AEAV?$vector@HV?$allocator@H@std@@@std@@1@Z
	?removeWhiteSpace@@YAXAEAV?$basic_string@DU?$char_traits@D@std@@V?$allocator@D@2@@std@@@Z
	?reorderReducedQureg@@YAXUQureg@@0V?$vector@HV?$allocator@H@std@@@std@@1@Z
	?replace@?$basic_string@DU?$char_traits@D@std@@V?$allocator@D@2@@std@@QEAAAEAV12@_K_KQEBD0@Z
	?reportScalar@@YAXPEBDN@Z
	?reportScalar@@YAXV?$basic_string@DU?$char_traits@D@std@@V?$allocator@D@2@@std@@0@Z
	?reportScalar@@YAXV?$basic_string@DU?$char_traits@D@std@@V?$allocator@D@2@@std@@N@Z
	?reportScalar@@YAXV?$basic_string@DU?$char_traits@D@std@@V?$allocator@D@2@@std@@V?$complex@N@2@@Z
	?reportStr@@YAXV?$basic_string@DU?$char_traits@D@std@@V?$allocator@D@2@@std@@@Z
	?reserve@?$basic_string@DU?$char_traits@D@std@@V?$allocator@D@2@@std@@QEAAX_K@Z
	?reserve@?$basic_string@_WU?$char_traits@_W@std@@V?$allocator@_W@2@@std@@QEAAX_K@Z
	?reserve@?$vector@HV?$allocator@H@std@@@std@@QEAAX_K@Z
	?resize@?$basic_string@_WU?$char_traits@_W@std@@V?$allocator@_W@2@@std@@QEAAX_K_W@Z
	?resize@?$vector@HV?$allocator@H@std@@@std@@QEAAX_K@Z
	?resize@?$vector@U_Loop_vals_t@std@@V?$allocator@U_Loop_vals_t@std@@@2@@std@@QEAAX_K@Z
	?resize@?$vector@V?$basic_string@DU?$char_traits@D@std@@V?$allocator@D@2@@std@@V?$allocator@V?$basic_string@DU?$char_traits@D@std@@V?$allocator@D@2@@std@@@2@@std@@QEAAX_K@Z
	?resize@?$vector@V?$complex@N@std@@V?$allocator@V?$complex@N@std@@@2@@std@@QEAAX_K@Z
	?resize@?$vector@_NV?$allocator@_N@std@@@std@@QEAAX_K_N@Z
	?runCircuit@@YAXAEAVGateScheduler@@AEAVDiskBackedState@@_N@Z
	?saveBlock@DiskBackedState@@QEBAXHAEBV?$vector@HV?$allocator@H@std@@@std@@AEBV?$vector@V?$complex@N@std@@V?$allocator@V?$complex@N@std@@@2@@3@@Z
	?saveChunk@DiskBackedState@@QEBAX_KAEBV?$vector@V?$complex@N@std@@V?$allocator@V?$complex@N@std@@@2@@std@@@Z
	?scheduleSwaps@@YA?AV?$vector@UGateOp@@V?$allocator@UGateOp@@@std@@@std@@AEBV?$vector@U?$pair@HH@std@@V?$allocator@U?$pair@HH@std@@@2@@2@@Z
	?seekoff@?$basic_filebuf@DU?$char_traits@D@std@@@std@@MEAA?AV?$fpos@U_Mbstatet@@@2@_JHH@Z
	?seekoff@?$basic_stringbuf@DU?$char_traits@D@std@@V?$allocator@D@2@@std@@MEAA?AV?$fpos@U_Mbstatet@@@2@_JHH@Z
	?seekpos@?$basic_filebuf@DU?$char_traits@D@std@@@std@@MEAA?AV?$fpos@U_Mbstatet@@@2@V32@H@Z
	?seekpos@?$basic_stringbuf@DU?$char_traits@D@std@@V?$allocator@D@2@@std@@MEAA?AV?$fpos@U_Mbstatet@@@2@V32@H@Z
	?separateStringIntoCoeffAndPaulis@@YAXV?$basic_string@DU?$char_traits@D@std@@V?$allocator@D@2@@std@@AEAV12@1@Z
	?setColumnLabelsToRanks@@YAXAEAV?$vector@V?$basic_string@DU?$char_traits@D@std@@V?$allocator@D@2@@std@@V?$allocator@V?$basic_string@DU?$char_traits@D@std@@V?$allocator@D@2@@std@@@2@@std@@AEAH_JUQureg@@@Z
	?setCompMatr@@YAXUCompMatr@@V?$vector@V?$vector@V?$complex@N@std@@V?$allocator@V?$complex@N@std@@@2@@std@@V?$allocator@V?$vector@V?$complex@N@std@@V?$allocator@V?$complex@N@std@@@2@@std@@@2@@std@@@Z
	?setDefaultCtrlStates@@YAXV?$vector@HV?$allocator@H@std@@@std@@AEAV12@@Z
	?setDensityQuregAmps@@YAXUQureg@@_J1V?$vector@V?$vector@V?$complex@N@std@@V?$allocator@V?$complex@N@std@@@2@@std@@V?$allocator@V?$vector@V?$complex@N@std@@V?$allocator@V?$complex@N@std@@@2@@std@@@2@@std@@@Z
	?setDensityQuregFlatAmps@@YAXUQureg@@_JV?$vector@V?$complex@N@std@@V?$allocator@V?$complex@N@std@@@2@@std@@@Z
	?setDiagElemsConj@@YAXPEAV?$complex@N@std@@_J@Z
	?setDiagMatr@@YAXUDiagMatr@@V?$vector@V?$complex@N@std@@V?$allocator@V?$complex@N@std@@@2@@std@@@Z
	?setFinished@?$ThreadSafeQueue@UBlockData@@@@QEAAXXZ
	?setFullStateDiagMatr@@YAXUFullStateDiagMatr@@_JV?$vector@V?$complex@N@std@@V?$allocator@V?$complex@N@std@@@2@@std@@@Z
	?setInlineCompMatr@@YAXUCompMatr@@HV?$vector@V?$vector@V?$complex@N@std@@V?$allocator@V?$complex@N@std@@@2@@std@@V?$allocator@V?$vector@V?$complex@N@std@@V?$allocator@V?$complex@N@std@@@2@@std@@@2@@std@@@Z
	?setInlineDiagMatr@@YAXUDiagMatr@@HV?$vector@V?$complex@N@std@@V?$allocator@V?$complex@N@std@@@2@@std@@@Z
	?setInlineFullStateDiagMatr@@YAXUFullStateDiagMatr@@_J1V?$vector@V?$complex@N@std@@V?$allocator@V?$complex@N@std@@@2@@std@@@Z
	?setInlineKrausMap@@YAXUKrausMap@@HHV?$vector@V?$vector@V?$vector@V?$complex@N@std@@V?$allocator@V?$complex@N@std@@@2@@std@@V?$allocator@V?$vector@V?$complex@N@std@@V?$allocator@V?$complex@N@std@@@2@@std@@@2@@std@@V?$allocator@V?$vector@V?$vector@V?$complex@N@std@@V?$allocator@V?$complex@N@std@@@2@@std@@V?$allocator@V?$vector@V?$complex@N@std@@V?$allocator@V?$complex@N@std@@@2@@std@@@2@@std@@@2@@std@@@Z
	?setInlineSuperOp@@YAXUSuperOp@@HV?$vector@V?$vector@V?$complex@N@std@@V?$allocator@V?$complex@N@std@@@2@@std@@V?$allocator@V?$vector@V?$complex@N@std@@V?$allocator@V?$complex@N@std@@@2@@std@@@2@@std@@@Z
	?setKrausMap@@YAXUKrausMap@@V?$vector@V?$vector@V?$vector@V?$complex@N@std@@V?$allocator@V?$complex@N@std@@@2@@std@@V?$allocator@V?$vector@V?$complex@N@std@@V?$allocator@V?$complex@N@std@@@2@@std@@@2@@std@@V?$allocator@V?$vector@V?$vector@V?$complex@N@std@@V?$allocator@V?$complex@N@std@@@2@@std@@V?$allocator@V?$vector@V?$complex@N@std@@V?$allocator@V?$complex@N@std@@@2@@std@@@2@@std@@@2@@std@@@Z
	?setQuregAmps@@YAXUQureg@@_JV?$vector@V?$complex@N@std@@V?$allocator@V?$complex@N@std@@@2@@std@@@Z
	?setQuregToPartialTrace@@YAXUQureg@@0V?$vector@HV?$allocator@H@std@@@std@@@Z
	?setQuregToReducedDensityMatrix@@YAXUQureg@@0V?$vector@HV?$allocator@H@std@@@std@@@Z
	?setSeeds@@YAXV?$vector@IV?$allocator@I@std@@@std@@@Z
	?setSuperOp@@YAXUSuperOp@@V?$vector@V?$vector@V?$complex@N@std@@V?$allocator@V?$complex@N@std@@@2@@std@@V?$allocator@V?$vector@V?$complex@N@std@@V?$allocator@V?$complex@N@std@@@2@@std@@@2@@std@@@Z
	?setbuf@?$basic_filebuf@DU?$char_traits@D@std@@@std@@MEAAPEAV?$basic_streambuf@DU?$char_traits@D@std@@@2@PEAD_J@Z
	?str@?$basic_ostringstream@DU?$char_traits@D@std@@V?$allocator@D@2@@std@@QEBA?AV?$basic_string@DU?$char_traits@D@std@@V?$allocator@D@2@@2@XZ
	?str@?$basic_stringbuf@DU?$char_traits@D@std@@V?$allocator@D@2@@std@@QEBA?AV?$basic_string@DU?$char_traits@D@std@@V?$allocator@D@2@@2@XZ
	?str@?$match_results@V?$_String_const_iterator@V?$_String_val@U?$_Simple_types@D@std@@@std@@@std@@V?$allocator@V?$sub_match@V?$_String_const_iterator@V?$_String_val@U?$_Simple_types@D@std@@@std@@@std@@@std@@@2@@std@@QEBA?AV?$basic_string@DU?$char_traits@D@std@@V?$allocator@D@2@@2@_K@Z
	?swapToMatch@@YA?AV?$vector@HV?$allocator@H@std@@@std@@V12@AEBV12@@Z
	?sync@?$basic_filebuf@DU?$char_traits@D@std@@@std@@MEAAHXZ
	?to_string@std@@YA?AV?$basic_string@DU?$char_traits@D@std@@V?$allocator@D@2@@1@H@Z
	?twoQubitDepolarisingOnPrefixAndPrefix@@YAXUQureg@@HHN@Z
	?twoQubitDepolarisingOnPrefixAndSuffix@@YAXUQureg@@HHN@Z
	?uflow@?$basic_filebuf@DU?$char_traits@D@std@@@std@@MEAAHXZ
	?underflow@?$basic_filebuf@DU?$char_traits@D@std@@@std@@MEAAHXZ
	?underflow@?$basic_stringbuf@DU?$char_traits@D@std@@V?$allocator@D@2@@std@@MEAAHXZ
	?util_allocEpsilonSensitiveHeapFlag@@YAPEAHXZ
	?util_areAllQubitsInSuffix@@YA_NV?$vector@HV?$allocator@H@std@@@std@@UQureg@@@Z
	?util_areAnyVectorElemsWithinNode@@YA_NH_J00@Z
	?util_deallocEpsilonSensitiveHeapFlag@@YAXPEAH@Z
	?util_getBitMask@@YA_JV?$vector@HV?$allocator@H@std@@@std@@000@Z
	?util_getBitMask@@YA_JV?$vector@HV?$allocator@H@std@@@std@@0@Z
	?util_getBitMask@@YA_JV?$vector@HV?$allocator@H@std@@@std@@@Z
	?util_getBraQubit@@YAHHUQureg@@@Z
	?util_getBraQubits@@YA?AV?$vector@HV?$allocator@H@std@@@std@@V12@UQureg@@@Z
	?util_getConcatenated@@YA?AV?$vector@HV?$allocator@H@std@@@std@@V12@0@Z
	?util_getConj@@YA?AUCompMatr1@@U1@@Z
	?util_getConj@@YA?AUCompMatr2@@U1@@Z
	?util_getConj@@YA?AUDiagMatr1@@U1@@Z
	?util_getConj@@YA?AUDiagMatr2@@U1@@Z
	?util_getElemFromNestedPtrs@@YA?AV?$complex@N@std@@PEAXPEA_JH@Z
	?util_getGlobalColumnOfFirstLocalAmp@@YA_JUQureg@@@Z
	?util_getGlobalFlatIndex@@YA_JUQureg@@_J1@Z
	?util_getGlobalIndexOfFirstLocalAmp@@YA_JUQureg@@@Z
	?util_getLocalIndRangeOfVectorElemsWithinNode@@YA?AUutil_VectorIndexRange@@H_J00@Z
	?util_getLocalIndexOfFirstDiagonalAmp@@YA_JUQureg@@@Z
	?util_getLocalIndexOfGlobalIndex@@YA_JUQureg@@_J@Z
	?util_getMaxProbOfOneQubitDephasing@@YANXZ
	?util_getMaxProbOfOneQubitDepolarising@@YANXZ
	?util_getMaxProbOfTwoQubitDephasing@@YANXZ
	?util_getMaxProbOfTwoQubitDepolarising@@YANXZ
	?util_getNextPowerOf2@@YA_J_J@Z
	?util_getNonTargetedQubits@@YA?AV?$vector@HV?$allocator@H@std@@@std@@PEAHHH@Z
	?util_getOneQubitDampingFactors@@YA?AUutil_Scalars@@N@Z
	?util_getOneQubitDephasingFactor@@YANN@Z
	?util_getOneQubitDepolarisingFactors@@YA?AUutil_Scalars@@N@Z
	?util_getOneQubitPauliChannelFactors@@YA?AUutil_Scalars@@NNNN@Z
	?util_getPhaseFromGateAngle@@YANN@Z
	?util_getPowerOfI@@YA?AV?$complex@N@std@@_K@Z
	?util_getPrefixAndSuffixQubits@@YA?AV?$array@V?$vector@HV?$allocator@H@std@@@std@@$01@std@@V?$vector@HV?$allocator@H@std@@@2@UQureg@@@Z
	?util_getPrefixBraInd@@YAHHUQureg@@@Z
	?util_getPrefixInd@@YAHHUQureg@@@Z
	?util_getRankBitOfBraQubit@@YAHHUQureg@@@Z
	?util_getRankBitOfQubit@@YAHHUQureg@@@Z
	?util_getRankContainingColumn@@YAHUQureg@@_J@Z
	?util_getRankContainingIndex@@YAHUFullStateDiagMatr@@_J@Z
	?util_getRankContainingIndex@@YAHUQureg@@_J@Z
	?util_getRankWithBraQubitFlipped@@YAHHUQureg@@@Z
	?util_getRankWithBraQubitsFlipped@@YAHV?$vector@HV?$allocator@H@std@@@std@@UQureg@@@Z
	?util_getRankWithQubitFlipped@@YAHHUQureg@@@Z
	?util_getRankWithQubitsFlipped@@YAHV?$vector@HV?$allocator@H@std@@@std@@UQureg@@@Z
	?util_getSorted@@YA?AV?$vector@HV?$allocator@H@std@@@std@@V12@0@Z
	?util_getSorted@@YA?AV?$vector@HV?$allocator@H@std@@@std@@V12@@Z
	?util_getSum@@YANV?$vector@NV?$allocator@N@std@@@std@@@Z
	?util_getTwoQubitDephasingTerm@@YANN@Z
	?util_getTwoQubitDepolarisingFactors@@YA?AUutil_Scalars@@N@Z
	?util_getVector@@YA?AV?$vector@HV?$allocator@H@std@@@std@@PEAHH@Z
	?util_isApproxNonZero@@YA_NUDiagMatr1@@N@Z
	?util_isApproxNonZero@@YA_NUDiagMatr2@@N@Z
	?util_isApproxNonZero@@YA_NUDiagMatr@@N@Z
	?util_isApproxNonZero@@YA_NUFullStateDiagMatr@@N@Z
	?util_isApproxReal@@YA_NV?$complex@N@std@@N@Z
	?util_isBraQubitInSuffix@@YA_NHUQureg@@@Z
	?util_isCPTP@@YA_NUKrausMap@@N@Z
	?util_isHermitian@@YA_NUCompMatr1@@N@Z
	?util_isHermitian@@YA_NUCompMatr2@@N@Z
	?util_isHermitian@@YA_NUCompMatr@@N@Z
	?util_isHermitian@@YA_NUDiagMatr1@@N@Z
	?util_isHermitian@@YA_NUDiagMatr2@@N@Z
	?util_isHermitian@@YA_NUDiagMatr@@N@Z
	?util_isHermitian@@YA_NUFullStateDiagMatr@@N@Z
	?util_isHermitian@@YA_NUPauliStrSum@@N@Z
	?util_isQubitInSuffix@@YA_NHUQureg@@@Z
	?util_isStrictlyInteger@@YA_NN@Z
	?util_isStrictlyNonNegative@@YA_NUDiagMatr1@@@Z
	?util_isStrictlyNonNegative@@YA_NUDiagMatr2@@@Z
	?util_isStrictlyNonNegative@@YA_NUDiagMatr@@@Z
	?util_isStrictlyNonNegative@@YA_NUFullStateDiagMatr@@@Z
	?util_isUnitary@@YA_NUCompMatr1@@N@Z
	?util_isUnitary@@YA_NUCompMatr2@@N@Z
	?util_isUnitary@@YA_NUCompMatr@@N@Z
	?util_isUnitary@@YA_NUDiagMatr1@@N@Z
	?util_isUnitary@@YA_NUDiagMatr2@@N@Z
	?util_isUnitary@@YA_NUDiagMatr@@N@Z
	?util_isUnitary@@YA_NUFullStateDiagMatr@@N@Z
	?util_setConj@@YAXUCompMatr@@@Z
	?util_setConj@@YAXUDiagMatr@@@Z
	?util_setEpsilonSensitiveHeapFlagsToUnknown@@YAXXZ
	?util_setFlagToUnknown@@YAXPEAH@Z
	?util_setSuperoperator@@YAXPEAPEAV?$complex@N@std@@PEAPEAPEAV12@HH@Z
	?util_setSuperoperator@@YAXPEAPEAV?$complex@N@std@@V?$vector@V?$vector@V?$vector@V?$complex@N@std@@V?$allocator@V?$complex@N@std@@@2@@std@@V?$allocator@V?$vector@V?$complex@N@std@@V?$allocator@V?$complex@N@std@@@2@@std@@@2@@std@@V?$allocator@V?$vector@V?$vector@V?$complex@N@std@@V?$allocator@V?$complex@N@std@@@2@@std@@V?$allocator@V?$vector@V?$complex@N@std@@V?$allocator@V?$complex@N@std@@@2@@std@@@2@@std@@@2@@2@HH@Z
	?util_tryAllocMatrix@@YAXAEAV?$vector@V?$vector@V?$complex@N@std@@V?$allocator@V?$complex@N@std@@@2@@std@@V?$allocator@V?$vector@V?$complex@N@std@@V?$allocator@V?$complex@N@std@@@2@@std@@@2@@std@@_J1V?$function@$$A6AXXZ@2@@Z
	?util_tryAllocVector@@YAXAEAV?$vector@IV?$allocator@I@std@@@std@@_JV?$function@$$A6AXXZ@2@@Z
	?util_tryAllocVector@@YAXAEAV?$vector@NV?$allocator@N@std@@@std@@_JV?$function@$$A6AXXZ@2@@Z
	?util_tryAllocVector@@YAXAEAV?$vector@PEAV?$complex@N@std@@V?$allocator@PEAV?$complex@N@std@@@2@@std@@_JV?$function@$$A6AXXZ@2@@Z
	?util_tryAllocVector@@YAXAEAV?$vector@V?$complex@N@std@@V?$allocator@V?$complex@N@std@@@2@@std@@_JV?$function@$$A6AXXZ@2@@Z
	?validateAndCreateCustomFullStateDiagMatr@@YA?AUFullStateDiagMatr@@HHHHPEBD@Z
	?validateAndCreateCustomQureg@@YA?AUQureg@@HHHHHPEBD@Z
	?validateAndInitCustomQuESTEnv@@YAXHHHPEBD@Z
	?validateDensMatrCanBeInitialisedToPureState@@YAXUQureg@@0PEBD@Z
	?validateStateVecCanBeInitialisedToPureState@@YAXUQureg@@0PEBD@Z
	?validate_basisStateIndex@@YAXUQureg@@_JPEBD@Z
	?validate_basisStateIndices@@YAXUQureg@@_J1PEBD@Z
	?validate_basisStateRowCol@@YAXUQureg@@_J1PEBD@Z
	?validate_basisStateRowCols@@YAXUQureg@@_J111PEBD@Z
	?validate_buresDistanceInnerProdIsNormalised@@YAXNPEBD@Z
	?validate_canReadFile@@YAXV?$basic_string@DU?$char_traits@D@std@@V?$allocator@D@2@@std@@PEBD@Z
	?validate_controlAndPauliStrTargets@@YAXUQureg@@HUPauliStr@@PEBD@Z
	?validate_controlAndTarget@@YAXUQureg@@HHPEBD@Z
	?validate_controlAndTargets@@YAXUQureg@@HPEAHHPEBD@Z
	?validate_controlAndTwoTargets@@YAXUQureg@@HHHPEBD@Z
	?validate_controlStates@@YAXPEAHHPEBD@Z
	?validate_controls@@YAXUQureg@@PEAHHPEBD@Z
	?validate_controlsAndPauliStrTargets@@YAXUQureg@@PEAHHUPauliStr@@PEBD@Z
	?validate_controlsAndTarget@@YAXUQureg@@PEAHHHPEBD@Z
	?validate_controlsAndTargets@@YAXUQureg@@PEAHH1HPEBD@Z
	?validate_controlsAndTwoTargets@@YAXUQureg@@PEAHHHHPEBD@Z
	?validate_controlsMatchStates@@YAXHHPEBD@Z
	?validate_declaredNumElemsMatchesVectorLength@@YAX_J0PEBD@Z
	?validate_densMatrExpecDiagMatrValueIsReal@@YAXV?$complex@N@std@@0PEBD@Z
	?validate_envIsInit@@YAXPEBD@Z
	?validate_envNeverInit@@YAX_N0PEBD@Z
	?validate_expecPauliStrSumValueIsReal@@YAXV?$complex@N@std@@_NPEBD@Z
	?validate_expecPauliStrValueIsReal@@YAXV?$complex@N@std@@_NPEBD@Z
	?validate_fidelityIsReal@@YAXV?$complex@N@std@@PEBD@Z
	?validate_fullStateDiagMatrNewElems@@YAXUFullStateDiagMatr@@_J1PEBD@Z
	?validate_funcVarSignedFlag@@YAXHPEBD@Z
	?validate_gpuIsCuQuantumCompatible@@YAXPEBD@Z
	?validate_krausMapFields@@YAXUKrausMap@@PEBD@Z
	?validate_krausMapFieldsMatchPassedParams@@YAXUKrausMap@@HHPEBD@Z
	?validate_krausMapIsCPTP@@YAXUKrausMap@@PEBD@Z
	?validate_krausMapIsSynced@@YAXUKrausMap@@PEBD@Z
	?validate_krausMapMatchesTargets@@YAXUKrausMap@@HPEBD@Z
	?validate_krausMapNewMatrixDims@@YAXUKrausMap@@V?$vector@V?$vector@V?$vector@V?$complex@N@std@@V?$allocator@V?$complex@N@std@@@2@@std@@V?$allocator@V?$vector@V?$complex@N@std@@V?$allocator@V?$complex@N@std@@@2@@std@@@2@@std@@V?$allocator@V?$vector@V?$vector@V?$complex@N@std@@V?$allocator@V?$complex@N@std@@@2@@std@@V?$allocator@V?$vector@V?$complex@N@std@@V?$allocator@V?$complex@N@std@@@2@@std@@@2@@std@@@2@@std@@PEBD@Z
	?validate_localAmpIndices@@YAXUQureg@@_J1PEBD@Z
	?validate_matrixAndQuregAreCompatible@@YAXUFullStateDiagMatr@@UQureg@@_NPEBD@Z
	?validate_matrixDimMatchesTargets@@YAXUCompMatr1@@HPEBD@Z
	?validate_matrixDimMatchesTargets@@YAXUCompMatr2@@HPEBD@Z
	?validate_matrixDimMatchesTargets@@YAXUCompMatr@@HPEBD@Z
	?validate_matrixDimMatchesTargets@@YAXUDiagMatr1@@HPEBD@Z
	?validate_matrixDimMatchesTargets@@YAXUDiagMatr2@@HPEBD@Z
	?validate_matrixDimMatchesTargets@@YAXUDiagMatr@@HPEBD@Z
	?validate_matrixExpIsHermitian@@YAXUDiagMatr@@NPEBD@Z
	?validate_matrixExpIsHermitian@@YAXUFullStateDiagMatr@@NPEBD@Z
	?validate_matrixExpIsNonDiverging@@YAXUDiagMatr@@V?$complex@N@std@@PEBD@Z
	?validate_matrixExpIsNonDiverging@@YAXUFullStateDiagMatr@@V?$complex@N@std@@PEBD@Z
	?validate_matrixFields@@YAXUCompMatr1@@PEBD@Z
	?validate_matrixFields@@YAXUCompMatr2@@PEBD@Z
	?validate_matrixFields@@YAXUCompMatr@@PEBD@Z
	?validate_matrixFields@@YAXUDiagMatr1@@PEBD@Z
	?validate_matrixFields@@YAXUDiagMatr2@@PEBD@Z
	?validate_matrixFields@@YAXUDiagMatr@@PEBD@Z
	?validate_matrixFields@@YAXUFullStateDiagMatr@@PEBD@Z
	?validate_matrixIsHermitian@@YAXUCompMatr1@@PEBD@Z
	?validate_matrixIsHermitian@@YAXUCompMatr2@@PEBD@Z
	?validate_matrixIsHermitian@@YAXUCompMatr@@PEBD@Z
	?validate_matrixIsHermitian@@YAXUDiagMatr1@@PEBD@Z
	?validate_matrixIsHermitian@@YAXUDiagMatr2@@PEBD@Z
	?validate_matrixIsHermitian@@YAXUDiagMatr@@PEBD@Z
	?validate_matrixIsHermitian@@YAXUFullStateDiagMatr@@PEBD@Z
	?validate_matrixIsSynced@@YAXUCompMatr@@PEBD@Z
	?validate_matrixIsSynced@@YAXUDiagMatr@@PEBD@Z
	?validate_matrixIsSynced@@YAXUFullStateDiagMatr@@PEBD@Z
	?validate_matrixIsUnitary@@YAXUCompMatr1@@PEBD@Z
	?validate_matrixIsUnitary@@YAXUCompMatr2@@PEBD@Z
	?validate_matrixIsUnitary@@YAXUCompMatr@@PEBD@Z
	?validate_matrixIsUnitary@@YAXUDiagMatr1@@PEBD@Z
	?validate_matrixIsUnitary@@YAXUDiagMatr2@@PEBD@Z
	?validate_matrixIsUnitary@@YAXUDiagMatr@@PEBD@Z
	?validate_matrixIsUnitary@@YAXUFullStateDiagMatr@@PEBD@Z
	?validate_matrixNewElemsPtrNotNull@@YAXPEAPEAV?$complex@N@std@@_JPEBD@Z
	?validate_matrixNewElemsPtrNotNull@@YAXPEAV?$complex@N@std@@PEBD@Z
	?validate_matrixNumNewElems@@YAXHV?$vector@V?$complex@N@std@@V?$allocator@V?$complex@N@std@@@2@@std@@PEBD@Z
	?validate_matrixNumNewElems@@YAXHV?$vector@V?$vector@V?$complex@N@std@@V?$allocator@V?$complex@N@std@@@2@@std@@V?$allocator@V?$vector@V?$complex@N@std@@V?$allocator@V?$complex@N@std@@@2@@std@@@2@@std@@PEBD@Z
	?validate_matrixNumQubitsMatchesParam@@YAXHHPEBD@Z
	?validate_matrixRowsAllSameSize@@YAXV?$vector@V?$vector@V?$complex@N@std@@V?$allocator@V?$complex@N@std@@@2@@std@@V?$allocator@V?$vector@V?$complex@N@std@@V?$allocator@V?$complex@N@std@@@2@@std@@@2@@std@@PEBD@Z
	?validate_measurementOutcomeIsValid@@YAXHPEBD@Z
	?validate_measurementOutcomeProbNotZero@@YAXHNPEBD@Z
	?validate_measurementOutcomesAreValid@@YAXPEAHHPEBD@Z
	?validate_measurementOutcomesFitInGpuMem@@YAXUQureg@@HPEBD@Z
	?validate_measurementOutcomesMatchTargets@@YAXHHPEBD@Z
	?validate_measurementOutcomesProbNotZero@@YAXPEAHHNPEBD@Z
	?validate_measurementProbsAreNormalised@@YAXV?$vector@NV?$allocator@N@std@@@std@@PEBD@Z
	?validate_mixedAmpsFitInNode@@YAXUQureg@@HPEBD@Z
	?validate_multiVarFuncQubits@@YAXHPEAHHPEBD@Z
	?validate_newCompMatrParams@@YAXHPEBD@Z
	?validate_newDiagMatrParams@@YAXHPEBD@Z
	?validate_newEnvDeploymentMode@@YAXHHHPEBD@Z
	?validate_newEnvDistributedBetweenPower2Nodes@@YAXPEBD@Z
	?validate_newEnvNodesEachHaveUniqueGpu@@YAXPEBD@Z
	?validate_newEpsilonValue@@YAXNPEBD@Z
	?validate_newFullStateDiagMatrParams@@YAXHHHHPEBD@Z
	?validate_newInlineKrausMapDimMatchesVectors@@YAXHHV?$vector@V?$vector@V?$vector@V?$complex@N@std@@V?$allocator@V?$complex@N@std@@@2@@std@@V?$allocator@V?$vector@V?$complex@N@std@@V?$allocator@V?$complex@N@std@@@2@@std@@@2@@std@@V?$allocator@V?$vector@V?$vector@V?$complex@N@std@@V?$allocator@V?$complex@N@std@@@2@@std@@V?$allocator@V?$vector@V?$complex@N@std@@V?$allocator@V?$complex@N@std@@@2@@std@@@2@@std@@@2@@std@@PEBD@Z
	?validate_newInlineSuperOpDimMatchesVectors@@YAXHV?$vector@V?$vector@V?$complex@N@std@@V?$allocator@V?$complex@N@std@@@2@@std@@V?$allocator@V?$vector@V?$complex@N@std@@V?$allocator@V?$complex@N@std@@@2@@std@@@2@@std@@PEBD@Z
	?validate_newKrausMapAllocs@@YAXUKrausMap@@PEBD@Z
	?validate_newKrausMapParams@@YAXHHPEBD@Z
	?validate_newMatrixAllocs@@YAXUCompMatr@@PEBD@Z
	?validate_newMatrixAllocs@@YAXUDiagMatr@@PEBD@Z
	?validate_newMatrixAllocs@@YAXUFullStateDiagMatr@@PEBD@Z
	?validate_newMaxNumReportedScalars@@YAX_J0PEBD@Z
	?validate_newMaxNumReportedSigFigs@@YAXHPEBD@Z
	?validate_newNumReportedNewlines@@YAXHPEBD@Z
	?validate_newPauliStrNumChars@@YAXHHPEBD@Z
	?validate_newPauliStrNumPaulis@@YAXHHPEBD@Z
	?validate_newPauliStrParams@@YAXPEAH0HHPEBD@Z
	?validate_newPauliStrParams@@YAXPEBDPEAHHH0@Z
	?validate_newPauliStrSumAllocs@@YAXUPauliStrSum@@_J1PEBD@Z
	?validate_newPauliStrSumMatchingListLens@@YAX_J0PEBD@Z
	?validate_newPauliStrSumParams@@YAX_JPEBD@Z
	?validate_newQuregAllocs@@YAXUQureg@@PEBD@Z
	?validate_newQuregParams@@YAXHHHHHUQuESTEnv@@PEBD@Z
	?validate_newSuperOpAllocs@@YAXUSuperOp@@PEBD@Z
	?validate_newSuperOpParams@@YAXHPEBD@Z
	?validate_numInitRandomPureStates@@YAX_JPEBD@Z
	?validate_numPauliChars@@YAXPEBD0@Z
	?validate_numReportedNewlinesAboveZero@@YAXPEBD@Z
	?validate_oneQubitDampingProb@@YAXNPEBD@Z
	?validate_oneQubitDepashingProb@@YAXNPEBD@Z
	?validate_oneQubitDepolarisingProb@@YAXNPEBD@Z
	?validate_oneQubitPauliChannelProbs@@YAXNNNPEBD@Z
	?validate_parsedPauliStrSumCoeffIsValid@@YAX_NV?$basic_string@DU?$char_traits@D@std@@V?$allocator@D@2@@std@@_JPEBD@Z
	?validate_parsedPauliStrSumLineHasConsistentNumPaulis@@YAXHHV?$basic_string@DU?$char_traits@D@std@@V?$allocator@D@2@@std@@_JPEBD@Z
	?validate_parsedPauliStrSumLineIsInterpretable@@YAX_NV?$basic_string@DU?$char_traits@D@std@@V?$allocator@D@2@@std@@_JPEBD@Z
	?validate_parsedStringIsNotEmpty@@YAX_NPEBD@Z
	?validate_pauliStrSumCanInitMatrix@@YAXUFullStateDiagMatr@@UPauliStrSum@@PEBD@Z
	?validate_pauliStrSumFields@@YAXUPauliStrSum@@PEBD@Z
	?validate_pauliStrSumIsHermitian@@YAXUPauliStrSum@@PEBD@Z
	?validate_pauliStrSumTargets@@YAXUPauliStrSum@@UQureg@@PEBD@Z
	?validate_pauliStrTargets@@YAXUQureg@@UPauliStr@@PEBD@Z
	?validate_probability@@YAXNPEBD@Z
	?validate_purifiedDistanceIsNormalised@@YAXV?$complex@N@std@@PEBD@Z
	?validate_quregCanBeInitialisedToPureState@@YAXUQureg@@0PEBD@Z
	?validate_quregCanBeReduced@@YAXUQureg@@HPEBD@Z
	?validate_quregCanBeSetToReducedDensMatr@@YAXUQureg@@0HPEBD@Z
	?validate_quregCanBeWorkspace@@YAXUQureg@@0PEBD@Z
	?validate_quregFields@@YAXUQureg@@PEBD@Z
	?validate_quregIsDensityMatrix@@YAXUQureg@@PEBD@Z
	?validate_quregIsStateVector@@YAXUQureg@@PEBD@Z
	?validate_quregRenormProbIsNotZero@@YAXNPEBD@Z
	?validate_quregsCanBeCloned@@YAXUQureg@@0PEBD@Z
	?validate_quregsCanBeMixed@@YAXUQureg@@0PEBD@Z
	?validate_quregsCanBeProducted@@YAXUQureg@@0PEBD@Z
	?validate_quregsCanBeSuperposed@@YAXUQureg@@00PEBD@Z
	?validate_randomSeeds@@YAXPEAIHPEBD@Z
	?validate_reportedPauliStrStyleFlag@@YAXHPEBD@Z
	?validate_rotationAxisNotZeroVector@@YAXNNNPEBD@Z
	?validate_superOpDimMatchesTargs@@YAXUSuperOp@@HPEBD@Z
	?validate_superOpFields@@YAXUSuperOp@@PEBD@Z
	?validate_superOpFieldsMatchPassedParams@@YAXUSuperOp@@HPEBD@Z
	?validate_superOpIsSynced@@YAXUSuperOp@@PEBD@Z
	?validate_superOpNewMatrixDims@@YAXUSuperOp@@V?$vector@V?$vector@V?$complex@N@std@@V?$allocator@V?$complex@N@std@@@2@@std@@V?$allocator@V?$vector@V?$complex@N@std@@V?$allocator@V?$complex@N@std@@@2@@std@@@2@@std@@PEBD@Z
	?validate_target@@YAXUQureg@@HPEBD@Z
	?validate_targets@@YAXUQureg@@PEAHHPEBD@Z
	?validate_tempAllocSucceeded@@YAX_N_J1PEBD@Z
	?validate_throwErrorBecauseCalcFidOfDensMatrNotYetImplemented@@YAXPEBD@Z
	?validate_trotterParams@@YAXUQureg@@HHPEBD@Z
	?validate_twoQubitDepashingProb@@YAXNPEBD@Z
	?validate_twoQubitDepolarisingProb@@YAXNPEBD@Z
	?validate_twoTargets@@YAXUQureg@@HHPEBD@Z
	?validate_unitaryExponentIsReal@@YAXV?$complex@N@std@@PEBD@Z
	?validateconfig_disable@@YAXXZ
	?validateconfig_enable@@YAXXZ
	?validateconfig_getEpsilon@@YANXZ
	?validateconfig_isEnabled@@YA_NXZ
	?validateconfig_setEpsilon@@YAXN@Z
	?validateconfig_setEpsilonToDefault@@YAXXZ
	?validateconfig_setErrorHandler@@YAXP6AXPEBD0@Z@Z
	?what@exception@std@@UEBAPEBDXZ
	?what@filesystem_error@filesystem@std@@UEBAPEBDXZ
	?xsgetn@?$basic_filebuf@DU?$char_traits@D@std@@@std@@MEAA_JPEAD_J@Z
	?xsputn@?$basic_filebuf@DU?$char_traits@D@std@@@std@@MEAA_JPEBD_J@Z
	__local_stdio_printf_options
	_getPauliStrFromInts
	_reportScalar_real
	_validateNewElemsPtrNotNull
	_validateNewNestedElemsPtrNotNull
	_validateParamsToCreateInlineCompMatr
	_validateParamsToCreateInlineDiagMatr
	_validateParamsToCreateInlineKrausMap
	_validateParamsToCreateInlineSuperOp
	_validateParamsToSetCompMatrFromArr
	_validateParamsToSetInlineCompMatr
	_validateParamsToSetInlineDiagMatr
	_validateParamsToSetInlineFullStateDiagMatr
	_validateParamsToSetInlineKrausMap
	_validateParamsToSetInlineSuperOp
	_validateParamsToSetKrausMapFromArr
	_validateParamsToSetSuperOpFromArr
	_wrap_calcExpecNonHermitianFullStateDiagMatr
	_wrap_calcExpecNonHermitianFullStateDiagMatrPower
	_wrap_calcExpecNonHermitianPauliStrSum
	_wrap_calcInnerProduct
	_wrap_getDensityQuregAmp
	_wrap_getQuregAmp
	applyCompMatr
	applyCompMatr1
	applyCompMatr2
	applyControlledCompMatr
	applyControlledCompMatr1
	applyControlledCompMatr2
	applyControlledDiagMatr
	applyControlledDiagMatr1
	applyControlledDiagMatr2
	applyControlledDiagMatrPower
	applyControlledHadamard
	applyControlledMultiQubitNot
	applyControlledPauliGadget
	applyControlledPauliStr
	applyControlledPauliX
	applyControlledPauliY
	applyControlledPauliZ
	applyControlledPhaseGadget
	applyControlledRotateAroundAxis
	applyControlledRotateX
	applyControlledRotateY
	applyControlledRotateZ
	applyControlledS
	applyControlledSqrtSwap
	applyControlledSwap
	applyControlledT
	applyDiagMatr
	applyDiagMatr1
	applyDiagMatr2
	applyDiagMatrPower
	applyFirstOrderTrotter
	applyForcedMultiQubitMeasurement
	applyForcedQubitMeasurement
	applyFullQuantumFourierTransform
	applyFullStateDiagMatr
	applyFullStateDiagMatrPower
	applyHadamard
	applyHigherOrderTrotter
	applyMultiControlledCompMatr
	applyMultiControlledCompMatr1
	applyMultiControlledCompMatr2
	applyMultiControlledDiagMatr
	applyMultiControlledDiagMatr1
	applyMultiControlledDiagMatr2
	applyMultiControlledDiagMatrPower
	applyMultiControlledHadamard
	applyMultiControlledMultiQubitNot
	applyMultiControlledPauliGadget
	applyMultiControlledPauliStr
	applyMultiControlledPauliX
	applyMultiControlledPauliY
	applyMultiControlledPauliZ
	applyMultiControlledPhaseGadget
	applyMultiControlledRotateAroundAxis
	applyMultiControlledRotateX
	applyMultiControlledRotateY
	applyMultiControlledRotateZ
	applyMultiControlledS
	applyMultiControlledSqrtSwap
	applyMultiControlledSwap
	applyMultiControlledT
	applyMultiQubitMeasurement
	applyMultiQubitMeasurementAndGetProb
	applyMultiQubitNot
	applyMultiQubitPhaseFlip
	applyMultiQubitPhaseShift
	applyMultiQubitProjector
	applyMultiStateControlledCompMatr
	applyMultiStateControlledCompMatr1
	applyMultiStateControlledCompMatr2
	applyMultiStateControlledDiagMatr
	applyMultiStateControlledDiagMatr1
	applyMultiStateControlledDiagMatr2
	applyMultiStateControlledDiagMatrPower
	applyMultiStateControlledHadamard
	applyMultiStateControlledMultiQubitNot
	applyMultiStateControlledPauliGadget
	applyMultiStateControlledPauliStr
	applyMultiStateControlledPauliX
	applyMultiStateControlledPauliY
	applyMultiStateControlledPauliZ
	applyMultiStateControlledPhaseGadget
	applyMultiStateControlledRotateAroundAxis
	applyMultiStateControlledRotateX
	applyMultiStateControlledRotateY
	applyMultiStateControlledRotateZ
	applyMultiStateControlledS
	applyMultiStateControlledSqrtSwap
	applyMultiStateControlledSwap
	applyMultiStateControlledT
	applyPauliGadget
	applyPauliStr
	applyPauliX
	applyPauliY
	applyPauliZ
	applyPhaseFlip
	applyPhaseGadget
	applyPhaseShift
	applyQuantumFourierTransform
	applyQubitMeasurement
	applyQubitMeasurementAndGetProb
	applyQubitProjector
	applyRotateAroundAxis
	applyRotateX
	applyRotateY
	applyRotateZ
	applyS
	applySqrtSwap
	applySwap
	applyT
	applyTrotterizedPauliStrSumGadget
	applyTwoQubitPhaseFlip
	applyTwoQubitPhaseShift
	calcDistance
	calcExpecFullStateDiagMatr
	calcExpecFullStateDiagMatrPower
	calcExpecPauliStr
	calcExpecPauliStrSum
	calcFidelity
	calcPartialTrace
	calcProbOfBasisState
	calcProbOfMultiQubitOutcome
	calcProbOfQubitOutcome
	calcProbsOfAllMultiQubitOutcomes
	calcPurity
	calcReducedDensityMatrix
	calcTotalProb
	clearGpuCache
	createCloneQureg
	createCompMatr
	createCustomFullStateDiagMatr
	createCustomQureg
	createDensityQureg
	createDiagMatr
	createForcedDensityQureg
	createForcedQureg
	createFullStateDiagMatr
	createFullStateDiagMatrFromPauliStrSum
	createInlinePauliStrSum
	createKrausMap
	createPauliStrSum
	createPauliStrSumFromFile
	createPauliStrSumFromReversedFile
	createQureg
	createSuperOp
	destroyCompMatr
	destroyDiagMatr
	destroyFullStateDiagMatr
	destroyKrausMap
	destroyPauliStrSum
	destroyQureg
	destroySuperOp
	finalizeQuESTEnv
	getDensityQuregAmps
	getEnvironmentString
	getGpuCacheSize
	getNumSeeds
	getPauliStr
	getQuESTEnv
	getQuregAmps
	getSeeds
	getValidationEpsilon
	initArbitraryMixedState
	initArbitraryPureState
	initBlankState
	initClassicalState
	initCustomQuESTEnv
	initDebugState
	initPlusState
	initPureState
	initQuESTEnv
	initRandomMixedState
	initRandomPureState
	initZeroState
	isQuESTEnvInit
	mixDamping
	mixDephasing
	mixDepolarising
	mixKrausMap
	mixPaulis
	mixQureg
	mixSuperOp
	mixTwoQubitDephasing
	mixTwoQubitDepolarising
	multiplyCompMatr
	multiplyCompMatr1
	multiplyCompMatr2
	multiplyDiagMatr
	multiplyDiagMatr1
	multiplyDiagMatr2
	multiplyDiagMatrPower
	multiplyFullStateDiagMatr
	multiplyFullStateDiagMatrPower
	multiplyMultiQubitNot
	multiplyPauliGadget
	multiplyPauliStr
	multiplyPauliStrSum
	multiplyPhaseGadget
	multiplySwap
	reportCompMatr
	reportCompMatr1
	reportCompMatr2
	reportDiagMatr
	reportDiagMatr1
	reportDiagMatr2
	reportFullStateDiagMatr
	reportKrausMap
	reportPauliStr
	reportPauliStrSum
	reportQuESTEnv
	reportQureg
	reportQuregParams
	reportScalar
	reportStr
	reportSuperOp
	setCompMatr
	setDensityQuregAmps
	setDensityQuregFlatAmps
	setDiagMatr
	setDiagMatrFromMultiDimLists
	setDiagMatrFromMultiVarFunc
	setFullStateDiagMatr
	setFullStateDiagMatrFromMultiDimLists
	setFullStateDiagMatrFromMultiVarFunc
	setFullStateDiagMatrFromPauliStrSum
	setInputErrorHandler
	setKrausMap
	setMaxNumReportedItems
	setMaxNumReportedSigFigs
	setNumReportedNewlines
	setQuregAmps
	setQuregToClone
	setQuregToPartialTrace
	setQuregToPauliStrSum
	setQuregToReducedDensityMatrix
	setQuregToRenormalized
	setQuregToSuperposition
	setReportedPauliChars
	setReportedPauliStrStyle
	setSeeds
	setSeedsToDefault
	setSuperOp
	setValidationEpsilon
	setValidationEpsilonToDefault
	setValidationOff
	setValidationOn
	snprintf
	syncCompMatr
	syncDiagMatr
	syncFullStateDiagMatr
	syncKrausMap
	syncQuESTEnv
	syncQuregFromGpu
	syncQuregToGpu
	syncSubQuregFromGpu
	syncSubQuregToGpu
	syncSuperOp
